SF:/Users/mustafagenc/Repositories/Kisisel/nitroterm/src/commands/config.rs
FN:226,_RNCNCNvMs_NtNtCsktOgCBfW0wH_8nitrokit8commands6configNtB8_13ConfigManager11save_config00Bc_
FN:112,_RNCNCNvMs_NtNtCsktOgCBfW0wH_8nitrokit8commands6configNtB8_13ConfigManager3new00Bc_
FN:161,_RNCNvMs_NtNtCsktOgCBfW0wH_8nitrokit8commands6configNtB6_13ConfigManager10get_config0Ba_
FN:199,_RNCNvMs_NtNtCsktOgCBfW0wH_8nitrokit8commands6configNtB6_13ConfigManager11save_config0Ba_
FN:442,_RNCNvMs_NtNtCsktOgCBfW0wH_8nitrokit8commands6configNtB6_13ConfigManager11show_config0Ba_
FN:232,_RNCNvMs_NtNtCsktOgCBfW0wH_8nitrokit8commands6configNtB6_13ConfigManager12is_first_run0Ba_
FN:479,_RNCNvMs_NtNtCsktOgCBfW0wH_8nitrokit8commands6configNtB6_13ConfigManager12reset_config0Ba_
FN:369,_RNCNvMs_NtNtCsktOgCBfW0wH_8nitrokit8commands6configNtB6_13ConfigManager16prompt_for_delay0Ba_
FN:334,_RNCNvMs_NtNtCsktOgCBfW0wH_8nitrokit8commands6configNtB6_13ConfigManager16prompt_for_model0Ba_
FN:245,_RNCNvMs_NtNtCsktOgCBfW0wH_8nitrokit8commands6configNtB6_13ConfigManager17interactive_setup0Ba_
FN:299,_RNCNvMs_NtNtCsktOgCBfW0wH_8nitrokit8commands6configNtB6_13ConfigManager18prompt_for_api_key0Ba_
FN:420,_RNCNvMs_NtNtCsktOgCBfW0wH_8nitrokit8commands6configNtB6_13ConfigManager22prompt_for_source_file0Ba_
FN:397,_RNCNvMs_NtNtCsktOgCBfW0wH_8nitrokit8commands6configNtB6_13ConfigManager23prompt_for_messages_dir0Ba_
FN:35,_RNCNvMs_NtNtCsktOgCBfW0wH_8nitrokit8commands6configNtB6_13ConfigManager3new0Ba_
FN:161,_RNvMs_NtNtCsktOgCBfW0wH_8nitrokit8commands6configNtB4_13ConfigManager10get_config
FN:199,_RNvMs_NtNtCsktOgCBfW0wH_8nitrokit8commands6configNtB4_13ConfigManager11save_config
FN:442,_RNvMs_NtNtCsktOgCBfW0wH_8nitrokit8commands6configNtB4_13ConfigManager11show_config
FN:232,_RNvMs_NtNtCsktOgCBfW0wH_8nitrokit8commands6configNtB4_13ConfigManager12is_first_run
FN:479,_RNvMs_NtNtCsktOgCBfW0wH_8nitrokit8commands6configNtB4_13ConfigManager12reset_config
FN:117,_RNvMs_NtNtCsktOgCBfW0wH_8nitrokit8commands6configNtB4_13ConfigManager14get_config_dir
FN:369,_RNvMs_NtNtCsktOgCBfW0wH_8nitrokit8commands6configNtB4_13ConfigManager16prompt_for_delay
FN:334,_RNvMs_NtNtCsktOgCBfW0wH_8nitrokit8commands6configNtB4_13ConfigManager16prompt_for_model
FN:245,_RNvMs_NtNtCsktOgCBfW0wH_8nitrokit8commands6configNtB4_13ConfigManager17interactive_setup
FN:299,_RNvMs_NtNtCsktOgCBfW0wH_8nitrokit8commands6configNtB4_13ConfigManager18prompt_for_api_key
FN:420,_RNvMs_NtNtCsktOgCBfW0wH_8nitrokit8commands6configNtB4_13ConfigManager22prompt_for_source_file
FN:397,_RNvMs_NtNtCsktOgCBfW0wH_8nitrokit8commands6configNtB4_13ConfigManager23prompt_for_messages_dir
FN:145,_RNvMs_NtNtCsktOgCBfW0wH_8nitrokit8commands6configNtB4_13ConfigManager23test_directory_writable
FN:35,_RNvMs_NtNtCsktOgCBfW0wH_8nitrokit8commands6configNtB4_13ConfigManager3new
FN:18,_RNvXNtNtCsktOgCBfW0wH_8nitrokit8commands6configNtB2_9AppConfigNtNtCsClSaUtMvjr_4core7default7Default7default
FN:226,_RNCNCNvMs_NtNtCsfbtyNxrRj5V_8nitrokit8commands6configNtB8_13ConfigManager11save_config00Bc_
FN:112,_RNCNCNvMs_NtNtCsfbtyNxrRj5V_8nitrokit8commands6configNtB8_13ConfigManager3new00Bc_
FN:161,_RNCNvMs_NtNtCsfbtyNxrRj5V_8nitrokit8commands6configNtB6_13ConfigManager10get_config0Ba_
FN:199,_RNCNvMs_NtNtCsfbtyNxrRj5V_8nitrokit8commands6configNtB6_13ConfigManager11save_config0Ba_
FN:442,_RNCNvMs_NtNtCsfbtyNxrRj5V_8nitrokit8commands6configNtB6_13ConfigManager11show_config0Ba_
FN:232,_RNCNvMs_NtNtCsfbtyNxrRj5V_8nitrokit8commands6configNtB6_13ConfigManager12is_first_run0Ba_
FN:479,_RNCNvMs_NtNtCsfbtyNxrRj5V_8nitrokit8commands6configNtB6_13ConfigManager12reset_config0Ba_
FN:369,_RNCNvMs_NtNtCsfbtyNxrRj5V_8nitrokit8commands6configNtB6_13ConfigManager16prompt_for_delay0Ba_
FN:334,_RNCNvMs_NtNtCsfbtyNxrRj5V_8nitrokit8commands6configNtB6_13ConfigManager16prompt_for_model0Ba_
FN:245,_RNCNvMs_NtNtCsfbtyNxrRj5V_8nitrokit8commands6configNtB6_13ConfigManager17interactive_setup0Ba_
FN:299,_RNCNvMs_NtNtCsfbtyNxrRj5V_8nitrokit8commands6configNtB6_13ConfigManager18prompt_for_api_key0Ba_
FN:420,_RNCNvMs_NtNtCsfbtyNxrRj5V_8nitrokit8commands6configNtB6_13ConfigManager22prompt_for_source_file0Ba_
FN:397,_RNCNvMs_NtNtCsfbtyNxrRj5V_8nitrokit8commands6configNtB6_13ConfigManager23prompt_for_messages_dir0Ba_
FN:35,_RNCNvMs_NtNtCsfbtyNxrRj5V_8nitrokit8commands6configNtB6_13ConfigManager3new0Ba_
FN:161,_RNvMs_NtNtCsfbtyNxrRj5V_8nitrokit8commands6configNtB4_13ConfigManager10get_config
FN:199,_RNvMs_NtNtCsfbtyNxrRj5V_8nitrokit8commands6configNtB4_13ConfigManager11save_config
FN:442,_RNvMs_NtNtCsfbtyNxrRj5V_8nitrokit8commands6configNtB4_13ConfigManager11show_config
FN:232,_RNvMs_NtNtCsfbtyNxrRj5V_8nitrokit8commands6configNtB4_13ConfigManager12is_first_run
FN:479,_RNvMs_NtNtCsfbtyNxrRj5V_8nitrokit8commands6configNtB4_13ConfigManager12reset_config
FN:117,_RNvMs_NtNtCsfbtyNxrRj5V_8nitrokit8commands6configNtB4_13ConfigManager14get_config_dir
FN:369,_RNvMs_NtNtCsfbtyNxrRj5V_8nitrokit8commands6configNtB4_13ConfigManager16prompt_for_delay
FN:334,_RNvMs_NtNtCsfbtyNxrRj5V_8nitrokit8commands6configNtB4_13ConfigManager16prompt_for_model
FN:245,_RNvMs_NtNtCsfbtyNxrRj5V_8nitrokit8commands6configNtB4_13ConfigManager17interactive_setup
FN:299,_RNvMs_NtNtCsfbtyNxrRj5V_8nitrokit8commands6configNtB4_13ConfigManager18prompt_for_api_key
FN:420,_RNvMs_NtNtCsfbtyNxrRj5V_8nitrokit8commands6configNtB4_13ConfigManager22prompt_for_source_file
FN:397,_RNvMs_NtNtCsfbtyNxrRj5V_8nitrokit8commands6configNtB4_13ConfigManager23prompt_for_messages_dir
FN:145,_RNvMs_NtNtCsfbtyNxrRj5V_8nitrokit8commands6configNtB4_13ConfigManager23test_directory_writable
FN:35,_RNvMs_NtNtCsfbtyNxrRj5V_8nitrokit8commands6configNtB4_13ConfigManager3new
FN:18,_RNvXNtNtCsfbtyNxrRj5V_8nitrokit8commands6configNtB2_9AppConfigNtNtCsClSaUtMvjr_4core7default7Default7default
FNDA:0,_RNCNCNvMs_NtNtCsktOgCBfW0wH_8nitrokit8commands6configNtB8_13ConfigManager11save_config00Bc_
FNDA:0,_RNCNCNvMs_NtNtCsktOgCBfW0wH_8nitrokit8commands6configNtB8_13ConfigManager3new00Bc_
FNDA:0,_RNCNvMs_NtNtCsktOgCBfW0wH_8nitrokit8commands6configNtB6_13ConfigManager10get_config0Ba_
FNDA:0,_RNCNvMs_NtNtCsktOgCBfW0wH_8nitrokit8commands6configNtB6_13ConfigManager11save_config0Ba_
FNDA:0,_RNCNvMs_NtNtCsktOgCBfW0wH_8nitrokit8commands6configNtB6_13ConfigManager11show_config0Ba_
FNDA:0,_RNCNvMs_NtNtCsktOgCBfW0wH_8nitrokit8commands6configNtB6_13ConfigManager12is_first_run0Ba_
FNDA:0,_RNCNvMs_NtNtCsktOgCBfW0wH_8nitrokit8commands6configNtB6_13ConfigManager12reset_config0Ba_
FNDA:0,_RNCNvMs_NtNtCsktOgCBfW0wH_8nitrokit8commands6configNtB6_13ConfigManager16prompt_for_delay0Ba_
FNDA:0,_RNCNvMs_NtNtCsktOgCBfW0wH_8nitrokit8commands6configNtB6_13ConfigManager16prompt_for_model0Ba_
FNDA:0,_RNCNvMs_NtNtCsktOgCBfW0wH_8nitrokit8commands6configNtB6_13ConfigManager17interactive_setup0Ba_
FNDA:0,_RNCNvMs_NtNtCsktOgCBfW0wH_8nitrokit8commands6configNtB6_13ConfigManager18prompt_for_api_key0Ba_
FNDA:0,_RNCNvMs_NtNtCsktOgCBfW0wH_8nitrokit8commands6configNtB6_13ConfigManager22prompt_for_source_file0Ba_
FNDA:0,_RNCNvMs_NtNtCsktOgCBfW0wH_8nitrokit8commands6configNtB6_13ConfigManager23prompt_for_messages_dir0Ba_
FNDA:0,_RNCNvMs_NtNtCsktOgCBfW0wH_8nitrokit8commands6configNtB6_13ConfigManager3new0Ba_
FNDA:0,_RNvMs_NtNtCsktOgCBfW0wH_8nitrokit8commands6configNtB4_13ConfigManager10get_config
FNDA:0,_RNvMs_NtNtCsktOgCBfW0wH_8nitrokit8commands6configNtB4_13ConfigManager11save_config
FNDA:0,_RNvMs_NtNtCsktOgCBfW0wH_8nitrokit8commands6configNtB4_13ConfigManager11show_config
FNDA:0,_RNvMs_NtNtCsktOgCBfW0wH_8nitrokit8commands6configNtB4_13ConfigManager12is_first_run
FNDA:0,_RNvMs_NtNtCsktOgCBfW0wH_8nitrokit8commands6configNtB4_13ConfigManager12reset_config
FNDA:0,_RNvMs_NtNtCsktOgCBfW0wH_8nitrokit8commands6configNtB4_13ConfigManager14get_config_dir
FNDA:0,_RNvMs_NtNtCsktOgCBfW0wH_8nitrokit8commands6configNtB4_13ConfigManager16prompt_for_delay
FNDA:0,_RNvMs_NtNtCsktOgCBfW0wH_8nitrokit8commands6configNtB4_13ConfigManager16prompt_for_model
FNDA:0,_RNvMs_NtNtCsktOgCBfW0wH_8nitrokit8commands6configNtB4_13ConfigManager17interactive_setup
FNDA:0,_RNvMs_NtNtCsktOgCBfW0wH_8nitrokit8commands6configNtB4_13ConfigManager18prompt_for_api_key
FNDA:0,_RNvMs_NtNtCsktOgCBfW0wH_8nitrokit8commands6configNtB4_13ConfigManager22prompt_for_source_file
FNDA:0,_RNvMs_NtNtCsktOgCBfW0wH_8nitrokit8commands6configNtB4_13ConfigManager23prompt_for_messages_dir
FNDA:0,_RNvMs_NtNtCsktOgCBfW0wH_8nitrokit8commands6configNtB4_13ConfigManager23test_directory_writable
FNDA:0,_RNvMs_NtNtCsktOgCBfW0wH_8nitrokit8commands6configNtB4_13ConfigManager3new
FNDA:0,_RNvXNtNtCsktOgCBfW0wH_8nitrokit8commands6configNtB2_9AppConfigNtNtCsClSaUtMvjr_4core7default7Default7default
FNDA:0,_RNCNCNvMs_NtNtCsfbtyNxrRj5V_8nitrokit8commands6configNtB8_13ConfigManager11save_config00Bc_
FNDA:0,_RNCNCNvMs_NtNtCsfbtyNxrRj5V_8nitrokit8commands6configNtB8_13ConfigManager3new00Bc_
FNDA:0,_RNCNvMs_NtNtCsfbtyNxrRj5V_8nitrokit8commands6configNtB6_13ConfigManager10get_config0Ba_
FNDA:0,_RNCNvMs_NtNtCsfbtyNxrRj5V_8nitrokit8commands6configNtB6_13ConfigManager11save_config0Ba_
FNDA:0,_RNCNvMs_NtNtCsfbtyNxrRj5V_8nitrokit8commands6configNtB6_13ConfigManager11show_config0Ba_
FNDA:0,_RNCNvMs_NtNtCsfbtyNxrRj5V_8nitrokit8commands6configNtB6_13ConfigManager12is_first_run0Ba_
FNDA:0,_RNCNvMs_NtNtCsfbtyNxrRj5V_8nitrokit8commands6configNtB6_13ConfigManager12reset_config0Ba_
FNDA:0,_RNCNvMs_NtNtCsfbtyNxrRj5V_8nitrokit8commands6configNtB6_13ConfigManager16prompt_for_delay0Ba_
FNDA:0,_RNCNvMs_NtNtCsfbtyNxrRj5V_8nitrokit8commands6configNtB6_13ConfigManager16prompt_for_model0Ba_
FNDA:0,_RNCNvMs_NtNtCsfbtyNxrRj5V_8nitrokit8commands6configNtB6_13ConfigManager17interactive_setup0Ba_
FNDA:0,_RNCNvMs_NtNtCsfbtyNxrRj5V_8nitrokit8commands6configNtB6_13ConfigManager18prompt_for_api_key0Ba_
FNDA:0,_RNCNvMs_NtNtCsfbtyNxrRj5V_8nitrokit8commands6configNtB6_13ConfigManager22prompt_for_source_file0Ba_
FNDA:0,_RNCNvMs_NtNtCsfbtyNxrRj5V_8nitrokit8commands6configNtB6_13ConfigManager23prompt_for_messages_dir0Ba_
FNDA:0,_RNCNvMs_NtNtCsfbtyNxrRj5V_8nitrokit8commands6configNtB6_13ConfigManager3new0Ba_
FNDA:0,_RNvMs_NtNtCsfbtyNxrRj5V_8nitrokit8commands6configNtB4_13ConfigManager10get_config
FNDA:0,_RNvMs_NtNtCsfbtyNxrRj5V_8nitrokit8commands6configNtB4_13ConfigManager11save_config
FNDA:0,_RNvMs_NtNtCsfbtyNxrRj5V_8nitrokit8commands6configNtB4_13ConfigManager11show_config
FNDA:0,_RNvMs_NtNtCsfbtyNxrRj5V_8nitrokit8commands6configNtB4_13ConfigManager12is_first_run
FNDA:0,_RNvMs_NtNtCsfbtyNxrRj5V_8nitrokit8commands6configNtB4_13ConfigManager12reset_config
FNDA:0,_RNvMs_NtNtCsfbtyNxrRj5V_8nitrokit8commands6configNtB4_13ConfigManager14get_config_dir
FNDA:0,_RNvMs_NtNtCsfbtyNxrRj5V_8nitrokit8commands6configNtB4_13ConfigManager16prompt_for_delay
FNDA:0,_RNvMs_NtNtCsfbtyNxrRj5V_8nitrokit8commands6configNtB4_13ConfigManager16prompt_for_model
FNDA:0,_RNvMs_NtNtCsfbtyNxrRj5V_8nitrokit8commands6configNtB4_13ConfigManager17interactive_setup
FNDA:0,_RNvMs_NtNtCsfbtyNxrRj5V_8nitrokit8commands6configNtB4_13ConfigManager18prompt_for_api_key
FNDA:0,_RNvMs_NtNtCsfbtyNxrRj5V_8nitrokit8commands6configNtB4_13ConfigManager22prompt_for_source_file
FNDA:0,_RNvMs_NtNtCsfbtyNxrRj5V_8nitrokit8commands6configNtB4_13ConfigManager23prompt_for_messages_dir
FNDA:0,_RNvMs_NtNtCsfbtyNxrRj5V_8nitrokit8commands6configNtB4_13ConfigManager23test_directory_writable
FNDA:0,_RNvMs_NtNtCsfbtyNxrRj5V_8nitrokit8commands6configNtB4_13ConfigManager3new
FNDA:0,_RNvXNtNtCsfbtyNxrRj5V_8nitrokit8commands6configNtB2_9AppConfigNtNtCsClSaUtMvjr_4core7default7Default7default
FNF:29
FNH:0
DA:18,0
DA:19,0
DA:20,0
DA:21,0
DA:22,0
DA:23,0
DA:24,0
DA:25,0
DA:26,0
DA:35,0
DA:36,0
DA:39,0
DA:40,0
DA:41,0
DA:42,0
DA:43,0
DA:44,0
DA:45,0
DA:46,0
DA:47,0
DA:48,0
DA:49,0
DA:50,0
DA:51,0
DA:52,0
DA:53,0
DA:54,0
DA:55,0
DA:56,0
DA:57,0
DA:58,0
DA:59,0
DA:60,0
DA:61,0
DA:62,0
DA:63,0
DA:64,0
DA:65,0
DA:66,0
DA:68,0
DA:69,0
DA:70,0
DA:71,0
DA:72,0
DA:73,0
DA:74,0
DA:75,0
DA:76,0
DA:77,0
DA:78,0
DA:79,0
DA:80,0
DA:81,0
DA:82,0
DA:83,0
DA:84,0
DA:85,0
DA:87,0
DA:88,0
DA:89,0
DA:90,0
DA:91,0
DA:92,0
DA:99,0
DA:100,0
DA:101,0
DA:102,0
DA:103,0
DA:104,0
DA:105,0
DA:106,0
DA:107,0
DA:108,0
DA:109,0
DA:110,0
DA:111,0
DA:112,0
DA:114,0
DA:115,0
DA:117,0
DA:119,0
DA:120,0
DA:121,0
DA:122,0
DA:123,0
DA:124,0
DA:127,0
DA:128,0
DA:129,0
DA:130,0
DA:131,0
DA:132,0
DA:135,0
DA:136,0
DA:137,0
DA:138,0
DA:139,0
DA:140,0
DA:141,0
DA:142,0
DA:143,0
DA:145,0
DA:146,0
DA:147,0
DA:148,0
DA:149,0
DA:150,0
DA:151,0
DA:152,0
DA:153,0
DA:154,0
DA:155,0
DA:156,0
DA:157,0
DA:158,0
DA:159,0
DA:161,0
DA:162,0
DA:165,0
DA:166,0
DA:167,0
DA:169,0
DA:170,0
DA:171,0
DA:172,0
DA:176,0
DA:177,0
DA:178,0
DA:179,0
DA:180,0
DA:181,0
DA:182,0
DA:183,0
DA:184,0
DA:186,0
DA:187,0
DA:188,0
DA:189,0
DA:190,0
DA:191,0
DA:192,0
DA:196,0
DA:197,0
DA:199,0
DA:200,0
DA:201,0
DA:202,0
DA:203,0
DA:204,0
DA:205,0
DA:206,0
DA:207,0
DA:208,0
DA:209,0
DA:210,0
DA:212,0
DA:213,0
DA:214,0
DA:215,0
DA:216,0
DA:217,0
DA:218,0
DA:219,0
DA:220,0
DA:221,0
DA:222,0
DA:223,0
DA:224,0
DA:225,0
DA:226,0
DA:229,0
DA:230,0
DA:232,0
DA:233,0
DA:234,0
DA:235,0
DA:237,0
DA:238,0
DA:241,0
DA:242,0
DA:243,0
DA:245,0
DA:246,0
DA:247,0
DA:248,0
DA:250,0
DA:251,0
DA:252,0
DA:253,0
DA:254,0
DA:255,0
DA:256,0
DA:259,0
DA:262,0
DA:263,0
DA:264,0
DA:267,0
DA:270,0
DA:273,0
DA:274,0
DA:275,0
DA:276,0
DA:277,0
DA:278,0
DA:279,0
DA:280,0
DA:281,0
DA:282,0
DA:283,0
DA:284,0
DA:285,0
DA:286,0
DA:287,0
DA:288,0
DA:289,0
DA:290,0
DA:291,0
DA:292,0
DA:293,0
DA:296,0
DA:297,0
DA:299,0
DA:300,0
DA:301,0
DA:302,0
DA:303,0
DA:304,0
DA:305,0
DA:307,0
DA:308,0
DA:309,0
DA:311,0
DA:314,0
DA:315,0
DA:317,0
DA:318,0
DA:319,0
DA:320,0
DA:321,0
DA:322,0
DA:323,0
DA:324,0
DA:326,0
DA:327,0
DA:329,0
DA:330,0
DA:331,0
DA:332,0
DA:334,0
DA:335,0
DA:336,0
DA:337,0
DA:338,0
DA:339,0
DA:340,0
DA:341,0
DA:342,0
DA:343,0
DA:344,0
DA:345,0
DA:346,0
DA:348,0
DA:349,0
DA:350,0
DA:351,0
DA:352,0
DA:353,0
DA:354,0
DA:356,0
DA:357,0
DA:358,0
DA:359,0
DA:361,0
DA:362,0
DA:366,0
DA:367,0
DA:369,0
DA:370,0
DA:371,0
DA:372,0
DA:373,0
DA:374,0
DA:376,0
DA:377,0
DA:378,0
DA:379,0
DA:380,0
DA:381,0
DA:382,0
DA:383,0
DA:384,0
DA:385,0
DA:387,0
DA:388,0
DA:391,0
DA:392,0
DA:395,0
DA:397,0
DA:398,0
DA:399,0
DA:400,0
DA:401,0
DA:402,0
DA:404,0
DA:405,0
DA:406,0
DA:407,0
DA:408,0
DA:409,0
DA:410,0
DA:411,0
DA:412,0
DA:413,0
DA:414,0
DA:415,0
DA:417,0
DA:418,0
DA:420,0
DA:421,0
DA:422,0
DA:423,0
DA:424,0
DA:425,0
DA:427,0
DA:428,0
DA:429,0
DA:430,0
DA:431,0
DA:432,0
DA:433,0
DA:434,0
DA:435,0
DA:436,0
DA:437,0
DA:439,0
DA:440,0
DA:442,0
DA:443,0
DA:445,0
DA:446,0
DA:448,0
DA:449,0
DA:450,0
DA:453,0
DA:454,0
DA:455,0
DA:456,0
DA:457,0
DA:458,0
DA:459,0
DA:460,0
DA:461,0
DA:462,0
DA:463,0
DA:464,0
DA:465,0
DA:466,0
DA:467,0
DA:468,0
DA:469,0
DA:470,0
DA:471,0
DA:472,0
DA:473,0
DA:474,0
DA:475,0
DA:476,0
DA:477,0
DA:479,0
DA:480,0
DA:481,0
DA:482,0
DA:483,0
DA:484,0
DA:485,0
DA:486,0
DA:487,0
DA:488,0
DA:489,0
DA:490,0
DA:491,0
DA:492,0
DA:493,0
DA:496,0
DA:497,0
BRF:0
BRH:0
LF:399
LH:0
end_of_record
SF:/Users/mustafagenc/Repositories/Kisisel/nitroterm/src/commands/create_release.rs
FN:229,_RNCNvNtNtCsktOgCBfW0wH_8nitrokit8commands14create_release12bump_version0B7_
FN:235,_RNCNvNtNtCsktOgCBfW0wH_8nitrokit8commands14create_release12bump_versions0_0B7_
FN:232,_RNCNvNtNtCsktOgCBfW0wH_8nitrokit8commands14create_release12bump_versions_0B7_
FN:269,_RNCNvNtNtCsktOgCBfW0wH_8nitrokit8commands14create_release14create_git_tag0B7_
FN:129,_RNCNvNtNtCsktOgCBfW0wH_8nitrokit8commands14create_release16bump_and_release0B7_
FN:255,_RNCNvNtNtCsktOgCBfW0wH_8nitrokit8commands14create_release17update_cargo_toml0B7_
FN:263,_RNCNvNtNtCsktOgCBfW0wH_8nitrokit8commands14create_release17update_cargo_tomls_0B7_
FN:6,_RNCNvNtNtCsktOgCBfW0wH_8nitrokit8commands14create_release24create_release_with_args0B7_
FN:22,_RNCNvNtNtCsktOgCBfW0wH_8nitrokit8commands14create_release26create_release_interactive0B7_
FN:190,_RNCNvNtNtCsktOgCBfW0wH_8nitrokit8commands14create_release29generate_release_notes_safely0B7_
FN:221,_RNvNtNtCsktOgCBfW0wH_8nitrokit8commands14create_release12bump_version
FN:269,_RNvNtNtCsktOgCBfW0wH_8nitrokit8commands14create_release14create_git_tag
FN:129,_RNvNtNtCsktOgCBfW0wH_8nitrokit8commands14create_release16bump_and_release
FN:252,_RNvNtNtCsktOgCBfW0wH_8nitrokit8commands14create_release17update_cargo_toml
FN:203,_RNvNtNtCsktOgCBfW0wH_8nitrokit8commands14create_release19get_latest_tag_safe
FN:164,_RNvNtNtCsktOgCBfW0wH_8nitrokit8commands14create_release20check_git_repository
FN:6,_RNvNtNtCsktOgCBfW0wH_8nitrokit8commands14create_release24create_release_with_args
FN:22,_RNvNtNtCsktOgCBfW0wH_8nitrokit8commands14create_release26create_release_interactive
FN:190,_RNvNtNtCsktOgCBfW0wH_8nitrokit8commands14create_release29generate_release_notes_safely
FN:97,_RNCNvNtNtCsktOgCBfW0wH_8nitrokit8commands14create_release19determine_bump_type0B7_
FN:100,_RNCNvNtNtCsktOgCBfW0wH_8nitrokit8commands14create_release19determine_bump_types_0B7_
FN:88,_RNvNtNtCsktOgCBfW0wH_8nitrokit8commands14create_release19determine_bump_type
FN:368,_RNvNtNtNtCsktOgCBfW0wH_8nitrokit8commands14create_release5testss_24test_determine_bump_type
FN:368,_RNvNtNtNtCsfbtyNxrRj5V_8nitrokit8commands14create_release5testss_24test_determine_bump_type
FN:88,_RNvNtNtCsfbtyNxrRj5V_8nitrokit8commands14create_release19determine_bump_type
FN:97,_RNCNvNtNtCsfbtyNxrRj5V_8nitrokit8commands14create_release19determine_bump_type0B7_
FN:100,_RNCNvNtNtCsfbtyNxrRj5V_8nitrokit8commands14create_release19determine_bump_types_0B7_
FN:229,_RNCNvNtNtCsfbtyNxrRj5V_8nitrokit8commands14create_release12bump_version0B7_
FN:235,_RNCNvNtNtCsfbtyNxrRj5V_8nitrokit8commands14create_release12bump_versions0_0B7_
FN:232,_RNCNvNtNtCsfbtyNxrRj5V_8nitrokit8commands14create_release12bump_versions_0B7_
FN:269,_RNCNvNtNtCsfbtyNxrRj5V_8nitrokit8commands14create_release14create_git_tag0B7_
FN:129,_RNCNvNtNtCsfbtyNxrRj5V_8nitrokit8commands14create_release16bump_and_release0B7_
FN:255,_RNCNvNtNtCsfbtyNxrRj5V_8nitrokit8commands14create_release17update_cargo_toml0B7_
FN:263,_RNCNvNtNtCsfbtyNxrRj5V_8nitrokit8commands14create_release17update_cargo_tomls_0B7_
FN:6,_RNCNvNtNtCsfbtyNxrRj5V_8nitrokit8commands14create_release24create_release_with_args0B7_
FN:22,_RNCNvNtNtCsfbtyNxrRj5V_8nitrokit8commands14create_release26create_release_interactive0B7_
FN:190,_RNCNvNtNtCsfbtyNxrRj5V_8nitrokit8commands14create_release29generate_release_notes_safely0B7_
FN:221,_RNvNtNtCsfbtyNxrRj5V_8nitrokit8commands14create_release12bump_version
FN:269,_RNvNtNtCsfbtyNxrRj5V_8nitrokit8commands14create_release14create_git_tag
FN:129,_RNvNtNtCsfbtyNxrRj5V_8nitrokit8commands14create_release16bump_and_release
FN:252,_RNvNtNtCsfbtyNxrRj5V_8nitrokit8commands14create_release17update_cargo_toml
FN:203,_RNvNtNtCsfbtyNxrRj5V_8nitrokit8commands14create_release19get_latest_tag_safe
FN:164,_RNvNtNtCsfbtyNxrRj5V_8nitrokit8commands14create_release20check_git_repository
FN:6,_RNvNtNtCsfbtyNxrRj5V_8nitrokit8commands14create_release24create_release_with_args
FN:22,_RNvNtNtCsfbtyNxrRj5V_8nitrokit8commands14create_release26create_release_interactive
FN:190,_RNvNtNtCsfbtyNxrRj5V_8nitrokit8commands14create_release29generate_release_notes_safely
FNDA:0,_RNCNvNtNtCsktOgCBfW0wH_8nitrokit8commands14create_release12bump_version0B7_
FNDA:0,_RNCNvNtNtCsktOgCBfW0wH_8nitrokit8commands14create_release12bump_versions0_0B7_
FNDA:0,_RNCNvNtNtCsktOgCBfW0wH_8nitrokit8commands14create_release12bump_versions_0B7_
FNDA:0,_RNCNvNtNtCsktOgCBfW0wH_8nitrokit8commands14create_release14create_git_tag0B7_
FNDA:0,_RNCNvNtNtCsktOgCBfW0wH_8nitrokit8commands14create_release16bump_and_release0B7_
FNDA:0,_RNCNvNtNtCsktOgCBfW0wH_8nitrokit8commands14create_release17update_cargo_toml0B7_
FNDA:0,_RNCNvNtNtCsktOgCBfW0wH_8nitrokit8commands14create_release17update_cargo_tomls_0B7_
FNDA:0,_RNCNvNtNtCsktOgCBfW0wH_8nitrokit8commands14create_release24create_release_with_args0B7_
FNDA:0,_RNCNvNtNtCsktOgCBfW0wH_8nitrokit8commands14create_release26create_release_interactive0B7_
FNDA:0,_RNCNvNtNtCsktOgCBfW0wH_8nitrokit8commands14create_release29generate_release_notes_safely0B7_
FNDA:0,_RNvNtNtCsktOgCBfW0wH_8nitrokit8commands14create_release12bump_version
FNDA:0,_RNvNtNtCsktOgCBfW0wH_8nitrokit8commands14create_release14create_git_tag
FNDA:0,_RNvNtNtCsktOgCBfW0wH_8nitrokit8commands14create_release16bump_and_release
FNDA:0,_RNvNtNtCsktOgCBfW0wH_8nitrokit8commands14create_release17update_cargo_toml
FNDA:0,_RNvNtNtCsktOgCBfW0wH_8nitrokit8commands14create_release19get_latest_tag_safe
FNDA:0,_RNvNtNtCsktOgCBfW0wH_8nitrokit8commands14create_release20check_git_repository
FNDA:0,_RNvNtNtCsktOgCBfW0wH_8nitrokit8commands14create_release24create_release_with_args
FNDA:0,_RNvNtNtCsktOgCBfW0wH_8nitrokit8commands14create_release26create_release_interactive
FNDA:0,_RNvNtNtCsktOgCBfW0wH_8nitrokit8commands14create_release29generate_release_notes_safely
FNDA:0,_RNCNvNtNtCsktOgCBfW0wH_8nitrokit8commands14create_release19determine_bump_type0B7_
FNDA:0,_RNCNvNtNtCsktOgCBfW0wH_8nitrokit8commands14create_release19determine_bump_types_0B7_
FNDA:3,_RNvNtNtCsktOgCBfW0wH_8nitrokit8commands14create_release19determine_bump_type
FNDA:1,_RNvNtNtNtCsktOgCBfW0wH_8nitrokit8commands14create_release5testss_24test_determine_bump_type
FNDA:1,_RNvNtNtNtCsfbtyNxrRj5V_8nitrokit8commands14create_release5testss_24test_determine_bump_type
FNDA:3,_RNvNtNtCsfbtyNxrRj5V_8nitrokit8commands14create_release19determine_bump_type
FNDA:0,_RNCNvNtNtCsfbtyNxrRj5V_8nitrokit8commands14create_release19determine_bump_type0B7_
FNDA:0,_RNCNvNtNtCsfbtyNxrRj5V_8nitrokit8commands14create_release19determine_bump_types_0B7_
FNDA:0,_RNCNvNtNtCsfbtyNxrRj5V_8nitrokit8commands14create_release12bump_version0B7_
FNDA:0,_RNCNvNtNtCsfbtyNxrRj5V_8nitrokit8commands14create_release12bump_versions0_0B7_
FNDA:0,_RNCNvNtNtCsfbtyNxrRj5V_8nitrokit8commands14create_release12bump_versions_0B7_
FNDA:0,_RNCNvNtNtCsfbtyNxrRj5V_8nitrokit8commands14create_release14create_git_tag0B7_
FNDA:0,_RNCNvNtNtCsfbtyNxrRj5V_8nitrokit8commands14create_release16bump_and_release0B7_
FNDA:0,_RNCNvNtNtCsfbtyNxrRj5V_8nitrokit8commands14create_release17update_cargo_toml0B7_
FNDA:0,_RNCNvNtNtCsfbtyNxrRj5V_8nitrokit8commands14create_release17update_cargo_tomls_0B7_
FNDA:0,_RNCNvNtNtCsfbtyNxrRj5V_8nitrokit8commands14create_release24create_release_with_args0B7_
FNDA:0,_RNCNvNtNtCsfbtyNxrRj5V_8nitrokit8commands14create_release26create_release_interactive0B7_
FNDA:0,_RNCNvNtNtCsfbtyNxrRj5V_8nitrokit8commands14create_release29generate_release_notes_safely0B7_
FNDA:0,_RNvNtNtCsfbtyNxrRj5V_8nitrokit8commands14create_release12bump_version
FNDA:0,_RNvNtNtCsfbtyNxrRj5V_8nitrokit8commands14create_release14create_git_tag
FNDA:0,_RNvNtNtCsfbtyNxrRj5V_8nitrokit8commands14create_release16bump_and_release
FNDA:0,_RNvNtNtCsfbtyNxrRj5V_8nitrokit8commands14create_release17update_cargo_toml
FNDA:0,_RNvNtNtCsfbtyNxrRj5V_8nitrokit8commands14create_release19get_latest_tag_safe
FNDA:0,_RNvNtNtCsfbtyNxrRj5V_8nitrokit8commands14create_release20check_git_repository
FNDA:0,_RNvNtNtCsfbtyNxrRj5V_8nitrokit8commands14create_release24create_release_with_args
FNDA:0,_RNvNtNtCsfbtyNxrRj5V_8nitrokit8commands14create_release26create_release_interactive
FNDA:0,_RNvNtNtCsfbtyNxrRj5V_8nitrokit8commands14create_release29generate_release_notes_safely
FNF:23
FNH:2
DA:6,0
DA:7,0
DA:8,0
DA:9,0
DA:10,0
DA:13,0
DA:16,0
DA:18,0
DA:19,0
DA:20,0
DA:22,0
DA:23,0
DA:24,0
DA:25,0
DA:26,0
DA:27,0
DA:28,0
DA:29,0
DA:30,0
DA:31,0
DA:32,0
DA:33,0
DA:34,0
DA:35,0
DA:36,0
DA:37,0
DA:38,0
DA:40,0
DA:41,0
DA:42,0
DA:43,0
DA:45,0
DA:46,0
DA:51,0
DA:52,0
DA:53,0
DA:54,0
DA:55,0
DA:57,0
DA:58,0
DA:60,0
DA:64,0
DA:65,0
DA:66,0
DA:67,0
DA:68,0
DA:69,0
DA:70,0
DA:71,0
DA:72,0
DA:73,0
DA:74,0
DA:75,0
DA:76,0
DA:77,0
DA:78,0
DA:79,0
DA:80,0
DA:81,0
DA:82,0
DA:84,0
DA:85,0
DA:86,0
DA:88,6
DA:89,6
DA:90,6
DA:91,6
DA:92,6
DA:93,6
DA:94,0
DA:95,0
DA:96,0
DA:97,0
DA:98,0
DA:99,0
DA:100,0
DA:101,0
DA:102,0
DA:103,0
DA:104,0
DA:105,0
DA:106,0
DA:107,0
DA:108,0
DA:109,0
DA:110,0
DA:111,0
DA:112,0
DA:114,0
DA:115,0
DA:116,0
DA:120,6
DA:121,6
DA:122,4
DA:123,2
DA:124,0
DA:127,6
DA:129,0
DA:130,0
DA:131,0
DA:132,0
DA:134,0
DA:135,0
DA:136,0
DA:137,0
DA:138,0
DA:139,0
DA:140,0
DA:143,0
DA:146,0
DA:147,0
DA:148,0
DA:149,0
DA:150,0
DA:151,0
DA:152,0
DA:153,0
DA:158,0
DA:160,0
DA:161,0
DA:162,0
DA:164,0
DA:166,0
DA:167,0
DA:168,0
DA:170,0
DA:171,0
DA:172,0
DA:173,0
DA:174,0
DA:177,0
DA:178,0
DA:179,0
DA:181,0
DA:182,0
DA:183,0
DA:184,0
DA:185,0
DA:186,0
DA:187,0
DA:188,0
DA:190,0
DA:192,0
DA:195,0
DA:196,0
DA:199,0
DA:201,0
DA:203,0
DA:204,0
DA:205,0
DA:206,0
DA:208,0
DA:209,0
DA:210,0
DA:211,0
DA:213,0
DA:217,0
DA:219,0
DA:221,0
DA:222,0
DA:223,0
DA:224,0
DA:225,0
DA:227,0
DA:228,0
DA:229,0
DA:230,0
DA:231,0
DA:232,0
DA:233,0
DA:234,0
DA:235,0
DA:237,0
DA:238,0
DA:239,0
DA:240,0
DA:242,0
DA:243,0
DA:244,0
DA:245,0
DA:249,0
DA:250,0
DA:252,0
DA:253,0
DA:254,0
DA:255,0
DA:257,0
DA:258,0
DA:259,0
DA:260,0
DA:261,0
DA:262,0
DA:263,0
DA:265,0
DA:266,0
DA:267,0
DA:269,0
DA:270,0
DA:273,0
DA:274,0
DA:275,0
DA:277,0
DA:279,0
DA:281,0
DA:283,0
DA:284,0
DA:285,0
DA:287,0
DA:288,0
DA:289,0
DA:291,0
DA:292,0
DA:293,0
DA:294,0
DA:295,0
DA:296,0
DA:297,0
DA:300,0
DA:301,0
DA:302,0
DA:304,0
DA:305,0
DA:306,0
DA:308,0
DA:309,0
DA:310,0
DA:311,0
DA:312,0
DA:313,0
DA:314,0
DA:315,0
DA:316,0
DA:317,0
DA:319,0
DA:320,0
DA:321,0
DA:322,0
DA:323,0
DA:324,0
DA:325,0
DA:326,0
DA:327,0
DA:328,0
DA:329,0
DA:330,0
DA:331,0
DA:332,0
DA:336,0
DA:337,0
DA:338,0
DA:340,0
DA:341,0
DA:342,0
DA:343,0
DA:344,0
DA:345,0
DA:346,0
DA:347,0
DA:348,0
DA:349,0
DA:350,0
DA:351,0
DA:352,0
DA:353,0
DA:354,0
DA:355,0
DA:356,0
DA:359,0
DA:360,0
DA:361,0
DA:368,2
DA:369,2
DA:370,2
DA:371,2
DA:372,2
BRF:0
BRH:0
LF:287
LH:16
end_of_record
SF:/Users/mustafagenc/Repositories/Kisisel/nitroterm/src/commands/dependency_update.rs
FN:132,_RNvNtNtCsktOgCBfW0wH_8nitrokit8commands17dependency_update17backup_lock_files
FN:562,_RNvNtNtCsktOgCBfW0wH_8nitrokit8commands17dependency_update18analyze_cargo_toml
FN:640,_RNvNtNtCsktOgCBfW0wH_8nitrokit8commands17dependency_update18backup_cargo_files
FN:55,_RNvNtNtCsktOgCBfW0wH_8nitrokit8commands17dependency_update18find_project_files
FN:9,_RNvNtNtCsktOgCBfW0wH_8nitrokit8commands17dependency_update19update_dependencies
FN:363,_RNvNtNtCsktOgCBfW0wH_8nitrokit8commands17dependency_update19update_yarn_via_npx
FN:187,_RNvNtNtCsktOgCBfW0wH_8nitrokit8commands17dependency_update20analyze_package_json
FN:100,_RNvNtNtCsktOgCBfW0wH_8nitrokit8commands17dependency_update20is_command_available
FN:755,_RNvNtNtCsktOgCBfW0wH_8nitrokit8commands17dependency_update21analyze_composer_json
FN:386,_RNvNtNtCsktOgCBfW0wH_8nitrokit8commands17dependency_update23update_npm_dependencies
FN:702,_RNvNtNtCsktOgCBfW0wH_8nitrokit8commands17dependency_update23update_pip_dependencies
FN:684,_RNvNtNtCsktOgCBfW0wH_8nitrokit8commands17dependency_update24analyze_requirements_txt
FN:111,_RNvNtNtCsktOgCBfW0wH_8nitrokit8commands17dependency_update24update_node_dependencies
FN:460,_RNvNtNtCsktOgCBfW0wH_8nitrokit8commands17dependency_update24update_pnpm_dependencies
FN:224,_RNvNtNtCsktOgCBfW0wH_8nitrokit8commands17dependency_update24update_yarn_dependencies
FN:593,_RNvNtNtCsktOgCBfW0wH_8nitrokit8commands17dependency_update25update_cargo_dependencies
FN:81,_RNvNtNtCsktOgCBfW0wH_8nitrokit8commands17dependency_update27detect_node_package_manager
FN:792,_RNvNtNtCsktOgCBfW0wH_8nitrokit8commands17dependency_update28update_composer_dependencies
FN:132,_RNvNtNtCsfbtyNxrRj5V_8nitrokit8commands17dependency_update17backup_lock_files
FN:562,_RNvNtNtCsfbtyNxrRj5V_8nitrokit8commands17dependency_update18analyze_cargo_toml
FN:640,_RNvNtNtCsfbtyNxrRj5V_8nitrokit8commands17dependency_update18backup_cargo_files
FN:55,_RNvNtNtCsfbtyNxrRj5V_8nitrokit8commands17dependency_update18find_project_files
FN:9,_RNvNtNtCsfbtyNxrRj5V_8nitrokit8commands17dependency_update19update_dependencies
FN:363,_RNvNtNtCsfbtyNxrRj5V_8nitrokit8commands17dependency_update19update_yarn_via_npx
FN:187,_RNvNtNtCsfbtyNxrRj5V_8nitrokit8commands17dependency_update20analyze_package_json
FN:100,_RNvNtNtCsfbtyNxrRj5V_8nitrokit8commands17dependency_update20is_command_available
FN:755,_RNvNtNtCsfbtyNxrRj5V_8nitrokit8commands17dependency_update21analyze_composer_json
FN:386,_RNvNtNtCsfbtyNxrRj5V_8nitrokit8commands17dependency_update23update_npm_dependencies
FN:702,_RNvNtNtCsfbtyNxrRj5V_8nitrokit8commands17dependency_update23update_pip_dependencies
FN:684,_RNvNtNtCsfbtyNxrRj5V_8nitrokit8commands17dependency_update24analyze_requirements_txt
FN:111,_RNvNtNtCsfbtyNxrRj5V_8nitrokit8commands17dependency_update24update_node_dependencies
FN:460,_RNvNtNtCsfbtyNxrRj5V_8nitrokit8commands17dependency_update24update_pnpm_dependencies
FN:224,_RNvNtNtCsfbtyNxrRj5V_8nitrokit8commands17dependency_update24update_yarn_dependencies
FN:593,_RNvNtNtCsfbtyNxrRj5V_8nitrokit8commands17dependency_update25update_cargo_dependencies
FN:81,_RNvNtNtCsfbtyNxrRj5V_8nitrokit8commands17dependency_update27detect_node_package_manager
FN:792,_RNvNtNtCsfbtyNxrRj5V_8nitrokit8commands17dependency_update28update_composer_dependencies
FNDA:4,_RNvNtNtCsktOgCBfW0wH_8nitrokit8commands17dependency_update17backup_lock_files
FNDA:1,_RNvNtNtCsktOgCBfW0wH_8nitrokit8commands17dependency_update18analyze_cargo_toml
FNDA:1,_RNvNtNtCsktOgCBfW0wH_8nitrokit8commands17dependency_update18backup_cargo_files
FNDA:4,_RNvNtNtCsktOgCBfW0wH_8nitrokit8commands17dependency_update18find_project_files
FNDA:4,_RNvNtNtCsktOgCBfW0wH_8nitrokit8commands17dependency_update19update_dependencies
FNDA:0,_RNvNtNtCsktOgCBfW0wH_8nitrokit8commands17dependency_update19update_yarn_via_npx
FNDA:4,_RNvNtNtCsktOgCBfW0wH_8nitrokit8commands17dependency_update20analyze_package_json
FNDA:4,_RNvNtNtCsktOgCBfW0wH_8nitrokit8commands17dependency_update20is_command_available
FNDA:0,_RNvNtNtCsktOgCBfW0wH_8nitrokit8commands17dependency_update21analyze_composer_json
FNDA:0,_RNvNtNtCsktOgCBfW0wH_8nitrokit8commands17dependency_update23update_npm_dependencies
FNDA:1,_RNvNtNtCsktOgCBfW0wH_8nitrokit8commands17dependency_update23update_pip_dependencies
FNDA:1,_RNvNtNtCsktOgCBfW0wH_8nitrokit8commands17dependency_update24analyze_requirements_txt
FNDA:4,_RNvNtNtCsktOgCBfW0wH_8nitrokit8commands17dependency_update24update_node_dependencies
FNDA:4,_RNvNtNtCsktOgCBfW0wH_8nitrokit8commands17dependency_update24update_pnpm_dependencies
FNDA:0,_RNvNtNtCsktOgCBfW0wH_8nitrokit8commands17dependency_update24update_yarn_dependencies
FNDA:1,_RNvNtNtCsktOgCBfW0wH_8nitrokit8commands17dependency_update25update_cargo_dependencies
FNDA:4,_RNvNtNtCsktOgCBfW0wH_8nitrokit8commands17dependency_update27detect_node_package_manager
FNDA:0,_RNvNtNtCsktOgCBfW0wH_8nitrokit8commands17dependency_update28update_composer_dependencies
FNDA:0,_RNvNtNtCsfbtyNxrRj5V_8nitrokit8commands17dependency_update17backup_lock_files
FNDA:0,_RNvNtNtCsfbtyNxrRj5V_8nitrokit8commands17dependency_update18analyze_cargo_toml
FNDA:0,_RNvNtNtCsfbtyNxrRj5V_8nitrokit8commands17dependency_update18backup_cargo_files
FNDA:0,_RNvNtNtCsfbtyNxrRj5V_8nitrokit8commands17dependency_update18find_project_files
FNDA:0,_RNvNtNtCsfbtyNxrRj5V_8nitrokit8commands17dependency_update19update_dependencies
FNDA:0,_RNvNtNtCsfbtyNxrRj5V_8nitrokit8commands17dependency_update19update_yarn_via_npx
FNDA:0,_RNvNtNtCsfbtyNxrRj5V_8nitrokit8commands17dependency_update20analyze_package_json
FNDA:0,_RNvNtNtCsfbtyNxrRj5V_8nitrokit8commands17dependency_update20is_command_available
FNDA:0,_RNvNtNtCsfbtyNxrRj5V_8nitrokit8commands17dependency_update21analyze_composer_json
FNDA:0,_RNvNtNtCsfbtyNxrRj5V_8nitrokit8commands17dependency_update23update_npm_dependencies
FNDA:0,_RNvNtNtCsfbtyNxrRj5V_8nitrokit8commands17dependency_update23update_pip_dependencies
FNDA:0,_RNvNtNtCsfbtyNxrRj5V_8nitrokit8commands17dependency_update24analyze_requirements_txt
FNDA:0,_RNvNtNtCsfbtyNxrRj5V_8nitrokit8commands17dependency_update24update_node_dependencies
FNDA:0,_RNvNtNtCsfbtyNxrRj5V_8nitrokit8commands17dependency_update24update_pnpm_dependencies
FNDA:0,_RNvNtNtCsfbtyNxrRj5V_8nitrokit8commands17dependency_update24update_yarn_dependencies
FNDA:0,_RNvNtNtCsfbtyNxrRj5V_8nitrokit8commands17dependency_update25update_cargo_dependencies
FNDA:0,_RNvNtNtCsfbtyNxrRj5V_8nitrokit8commands17dependency_update27detect_node_package_manager
FNDA:0,_RNvNtNtCsfbtyNxrRj5V_8nitrokit8commands17dependency_update28update_composer_dependencies
FNF:18
FNH:13
DA:9,4
DA:10,4
DA:11,4
DA:12,4
DA:13,4
DA:14,4
DA:15,0
DA:16,0
DA:17,4
DA:19,10
DA:20,6
DA:21,6
DA:22,6
DA:23,6
DA:24,4
DA:25,4
DA:26,4
DA:27,2
DA:28,1
DA:29,1
DA:30,1
DA:31,1
DA:32,1
DA:33,1
DA:34,1
DA:35,0
DA:36,0
DA:37,0
DA:38,0
DA:39,0
DA:40,0
DA:41,0
DA:45,4
DA:46,4
DA:47,4
DA:48,4
DA:49,4
DA:50,4
DA:51,4
DA:52,4
DA:53,4
DA:55,4
DA:56,4
DA:57,4
DA:58,4
DA:59,4
DA:60,4
DA:61,4
DA:64,4
DA:65,1
DA:66,3
DA:69,4
DA:70,1
DA:71,3
DA:74,4
DA:75,0
DA:76,4
DA:78,4
DA:79,4
DA:81,4
DA:82,4
DA:83,4
DA:84,0
DA:85,4
DA:86,0
DA:87,4
DA:88,0
DA:91,4
DA:92,4
DA:93,4
DA:94,0
DA:96,0
DA:98,4
DA:100,4
DA:101,4
DA:102,4
DA:103,0
DA:104,0
DA:105,0
DA:107,4
DA:109,4
DA:111,4
DA:112,4
DA:113,4
DA:114,4
DA:115,4
DA:116,4
DA:117,4
DA:118,4
DA:119,4
DA:120,4
DA:121,0
DA:122,0
DA:123,0
DA:126,0
DA:127,0
DA:128,0
DA:130,4
DA:132,4
DA:133,4
DA:134,4
DA:135,4
DA:137,4
DA:138,0
DA:139,0
DA:140,4
DA:141,4
DA:142,4
DA:143,4
DA:144,4
DA:145,0
DA:146,4
DA:147,4
DA:148,4
DA:149,0
DA:151,4
DA:152,4
DA:153,0
DA:154,0
DA:155,0
DA:157,8
DA:158,4
DA:159,0
DA:160,0
DA:161,0
DA:162,0
DA:163,0
DA:164,0
DA:165,0
DA:167,4
DA:169,4
DA:170,4
DA:171,4
DA:172,4
DA:173,4
DA:174,4
DA:175,4
DA:176,8
DA:177,4
DA:178,4
DA:179,4
DA:180,0
DA:181,0
DA:182,0
DA:183,0
DA:184,0
DA:185,4
DA:187,4
DA:188,4
DA:189,4
DA:190,4
DA:191,4
DA:193,4
DA:194,6
DA:195,3
DA:196,3
DA:197,3
DA:198,3
DA:199,3
DA:200,3
DA:201,1
DA:203,4
DA:204,0
DA:205,0
DA:206,0
DA:207,0
DA:208,0
DA:209,0
DA:210,0
DA:211,0
DA:212,4
DA:214,0
DA:215,0
DA:216,0
DA:218,0
DA:219,0
DA:220,0
DA:222,4
DA:224,0
DA:225,0
DA:228,0
DA:229,0
DA:230,0
DA:232,0
DA:235,0
DA:236,0
DA:237,0
DA:238,0
DA:239,0
DA:240,0
DA:241,0
DA:242,0
DA:243,0
DA:245,0
DA:246,0
DA:247,0
DA:248,0
DA:249,0
DA:250,0
DA:251,0
DA:252,0
DA:253,0
DA:254,0
DA:255,0
DA:256,0
DA:258,0
DA:259,0
DA:261,0
DA:263,0
DA:266,0
DA:268,0
DA:269,0
DA:270,0
DA:271,0
DA:273,0
DA:274,0
DA:275,0
DA:276,0
DA:277,0
DA:278,0
DA:279,0
DA:280,0
DA:281,0
DA:282,0
DA:283,0
DA:284,0
DA:285,0
DA:286,0
DA:287,0
DA:288,0
DA:289,0
DA:290,0
DA:291,0
DA:292,0
DA:293,0
DA:296,0
DA:297,0
DA:298,0
DA:299,0
DA:300,0
DA:301,0
DA:302,0
DA:303,0
DA:304,0
DA:305,0
DA:306,0
DA:307,0
DA:308,0
DA:309,0
DA:310,0
DA:311,0
DA:312,0
DA:313,0
DA:314,0
DA:315,0
DA:317,0
DA:318,0
DA:319,0
DA:320,0
DA:324,0
DA:325,0
DA:326,0
DA:327,0
DA:328,0
DA:329,0
DA:330,0
DA:331,0
DA:332,0
DA:333,0
DA:334,0
DA:335,0
DA:336,0
DA:337,0
DA:338,0
DA:339,0
DA:340,0
DA:341,0
DA:342,0
DA:343,0
DA:345,0
DA:346,0
DA:347,0
DA:348,0
DA:350,0
DA:351,0
DA:352,0
DA:353,0
DA:354,0
DA:356,0
DA:357,0
DA:358,0
DA:359,0
DA:361,0
DA:363,0
DA:364,0
DA:365,0
DA:366,0
DA:367,0
DA:368,0
DA:369,0
DA:370,0
DA:371,0
DA:372,0
DA:373,0
DA:374,0
DA:375,0
DA:376,0
DA:377,0
DA:378,0
DA:380,0
DA:381,0
DA:382,0
DA:384,0
DA:386,0
DA:387,0
DA:389,0
DA:390,0
DA:392,0
DA:394,0
DA:397,0
DA:398,0
DA:399,0
DA:400,0
DA:401,0
DA:402,0
DA:403,0
DA:404,0
DA:405,0
DA:406,0
DA:407,0
DA:408,0
DA:409,0
DA:410,0
DA:411,0
DA:412,0
DA:413,0
DA:414,0
DA:415,0
DA:416,0
DA:417,0
DA:418,0
DA:419,0
DA:420,0
DA:421,0
DA:422,0
DA:423,0
DA:424,0
DA:425,0
DA:426,0
DA:427,0
DA:428,0
DA:429,0
DA:430,0
DA:431,0
DA:432,0
DA:433,0
DA:434,0
DA:435,0
DA:436,0
DA:437,0
DA:438,0
DA:439,0
DA:440,0
DA:442,0
DA:443,0
DA:444,0
DA:445,0
DA:447,0
DA:448,0
DA:449,0
DA:450,0
DA:451,0
DA:453,0
DA:454,0
DA:455,0
DA:456,0
DA:458,0
DA:460,4
DA:461,4
DA:463,4
DA:464,0
DA:466,0
DA:468,4
DA:471,4
DA:472,0
DA:473,0
DA:474,4
DA:475,4
DA:476,4
DA:477,4
DA:478,4
DA:479,4
DA:480,4
DA:481,4
DA:482,4
DA:483,4
DA:484,4
DA:485,4
DA:486,4
DA:487,4
DA:488,4
DA:489,4
DA:490,4
DA:491,4
DA:492,4
DA:493,4
DA:494,4
DA:495,4
DA:496,4
DA:497,4
DA:498,4
DA:499,4
DA:500,4
DA:501,4
DA:502,4
DA:503,4
DA:504,4
DA:505,4
DA:506,4
DA:507,4
DA:508,4
DA:509,4
DA:510,0
DA:511,0
DA:512,4
DA:513,4
DA:514,4
DA:516,0
DA:517,0
DA:518,0
DA:519,0
DA:523,4
DA:524,4
DA:525,4
DA:526,4
DA:527,4
DA:528,4
DA:529,4
DA:530,4
DA:531,4
DA:532,4
DA:533,4
DA:534,4
DA:535,4
DA:536,4
DA:537,4
DA:538,4
DA:539,4
DA:540,4
DA:541,0
DA:542,0
DA:544,0
DA:545,0
DA:546,0
DA:547,0
DA:549,0
DA:550,0
DA:551,0
DA:552,0
DA:553,0
DA:555,0
DA:556,0
DA:557,0
DA:558,0
DA:560,4
DA:562,1
DA:563,1
DA:564,0
DA:565,0
DA:566,0
DA:567,0
DA:568,0
DA:570,0
DA:571,0
DA:572,0
DA:573,0
DA:574,0
DA:575,0
DA:576,0
DA:577,0
DA:578,0
DA:579,0
DA:580,0
DA:581,0
DA:582,0
DA:583,0
DA:584,0
DA:587,1
DA:588,1
DA:589,1
DA:591,1
DA:593,1
DA:594,1
DA:595,1
DA:596,1
DA:597,1
DA:598,1
DA:600,1
DA:601,1
DA:602,1
DA:603,1
DA:604,1
DA:605,1
DA:606,1
DA:607,1
DA:608,1
DA:609,1
DA:610,1
DA:611,1
DA:612,1
DA:613,1
DA:614,0
DA:615,0
DA:616,0
DA:617,0
DA:618,0
DA:619,0
DA:620,0
DA:621,0
DA:622,1
DA:623,1
DA:624,1
DA:625,1
DA:626,1
DA:628,0
DA:629,0
DA:630,0
DA:631,0
DA:634,0
DA:635,0
DA:636,0
DA:638,1
DA:640,1
DA:641,1
DA:642,1
DA:643,1
DA:645,1
DA:646,0
DA:647,0
DA:648,1
DA:649,1
DA:650,1
DA:651,1
DA:652,0
DA:653,0
DA:654,0
DA:655,0
DA:656,0
DA:657,1
DA:659,1
DA:660,0
DA:661,0
DA:662,0
DA:663,0
DA:664,0
DA:665,1
DA:666,1
DA:667,0
DA:668,0
DA:669,0
DA:670,0
DA:671,0
DA:672,0
DA:673,0
DA:674,0
DA:675,0
DA:676,0
DA:677,1
DA:678,1
DA:679,1
DA:680,1
DA:681,1
DA:682,1
DA:684,1
DA:685,1
DA:686,0
DA:687,0
DA:689,0
DA:690,0
DA:691,0
DA:692,0
DA:693,0
DA:696,1
DA:697,1
DA:698,1
DA:700,1
DA:702,1
DA:703,1
DA:704,1
DA:705,1
DA:706,1
DA:709,0
DA:710,0
DA:711,0
DA:712,0
DA:713,0
DA:714,0
DA:715,0
DA:716,0
DA:718,0
DA:719,0
DA:720,0
DA:721,0
DA:722,0
DA:723,0
DA:724,0
DA:726,0
DA:727,0
DA:728,0
DA:730,0
DA:733,0
DA:734,0
DA:735,0
DA:736,0
DA:737,0
DA:738,0
DA:739,0
DA:740,0
DA:741,0
DA:742,0
DA:744,0
DA:745,0
DA:746,0
DA:749,1
DA:750,1
DA:751,1
DA:753,1
DA:755,0
DA:756,0
DA:757,0
DA:758,0
DA:759,0
DA:761,0
DA:762,0
DA:763,0
DA:764,0
DA:765,0
DA:766,0
DA:767,0
DA:768,0
DA:769,0
DA:771,0
DA:772,0
DA:773,0
DA:774,0
DA:775,0
DA:776,0
DA:777,0
DA:778,0
DA:779,0
DA:780,0
DA:782,0
DA:783,0
DA:784,0
DA:786,0
DA:787,0
DA:788,0
DA:790,0
DA:792,0
DA:793,0
DA:794,0
DA:795,0
DA:796,0
DA:798,0
DA:799,0
DA:800,0
DA:801,0
DA:802,0
DA:803,0
DA:804,0
DA:805,0
DA:806,0
DA:807,0
DA:808,0
DA:809,0
DA:810,0
DA:811,0
DA:812,0
DA:813,0
DA:814,0
DA:816,0
DA:817,0
DA:818,0
DA:820,0
DA:821,0
DA:822,0
DA:823,0
DA:825,0
DA:826,0
DA:827,0
DA:830,0
DA:831,0
DA:832,0
DA:834,0
BRF:0
BRH:0
LF:694
LH:250
end_of_record
SF:/Users/mustafagenc/Repositories/Kisisel/nitroterm/src/commands/release_notes.rs
FN:375,_RNvMNtNtCsktOgCBfW0wH_8nitrokit8commands13release_notesNtB2_10CommitInfo10short_hash
FN:383,_RNvMNtNtCsktOgCBfW0wH_8nitrokit8commands13release_notesNtB2_10CommitInfo11format_date
FN:393,_RNvMNtNtCsktOgCBfW0wH_8nitrokit8commands13release_notesNtB2_10CommitInfo11format_time
FN:532,_RNvMs0_NtNtCsktOgCBfW0wH_8nitrokit8commands13release_notesNtB5_18CategorizedCommits3new
FN:262,_RNvNtNtCsktOgCBfW0wH_8nitrokit8commands13release_notes12get_all_tags
FN:102,_RNvNtNtCsktOgCBfW0wH_8nitrokit8commands13release_notes13get_tag_range
FN:592,_RNvNtNtCsktOgCBfW0wH_8nitrokit8commands13release_notes13is_prerelease
FN:448,_RNvNtNtCsktOgCBfW0wH_8nitrokit8commands13release_notes13parse_git_url
FN:68,_RNvNtNtCsktOgCBfW0wH_8nitrokit8commands13release_notes14clean_tag_name
FN:234,_RNvNtNtCsktOgCBfW0wH_8nitrokit8commands13release_notes14is_version_tag
FN:497,_RNvNtNtCsktOgCBfW0wH_8nitrokit8commands13release_notes17extract_repo_path
FN:553,_RNvNtNtCsktOgCBfW0wH_8nitrokit8commands13release_notes18categorize_commits
FN:181,_RNvNtNtCsktOgCBfW0wH_8nitrokit8commands13release_notes18generate_smart_tag
FN:172,_RNvNtNtCsktOgCBfW0wH_8nitrokit8commands13release_notes18get_current_branch
FN:624,_RNvNtNtCsktOgCBfW0wH_8nitrokit8commands13release_notes19generate_issues_url
FN:427,_RNvNtNtCsktOgCBfW0wH_8nitrokit8commands13release_notes19get_repository_info
FN:294,_RNvNtNtCsktOgCBfW0wH_8nitrokit8commands13release_notes20compare_version_tags
FN:620,_RNvNtNtCsktOgCBfW0wH_8nitrokit8commands13release_notes20generate_commits_url
FN:603,_RNvNtNtCsktOgCBfW0wH_8nitrokit8commands13release_notes20generate_compare_url
FN:628,_RNvNtNtCsktOgCBfW0wH_8nitrokit8commands13release_notes22generate_new_issue_url
FN:9,_RNvNtNtCsktOgCBfW0wH_8nitrokit8commands13release_notes22generate_release_notes
FN:322,_RNvNtNtCsktOgCBfW0wH_8nitrokit8commands13release_notes24get_commits_between_tags
FN:135,_RNvNtNtCsktOgCBfW0wH_8nitrokit8commands13release_notes25get_current_commit_as_tag
FN:223,_RNvNtNtCsktOgCBfW0wH_8nitrokit8commands13release_notes27extract_version_from_string
FN:632,_RNvNtNtCsktOgCBfW0wH_8nitrokit8commands13release_notes27get_contributors_with_stats
FN:653,_RNvNtNtCsktOgCBfW0wH_8nitrokit8commands13release_notes33format_github_username_with_stats
FN:685,_RNvNtNtCsktOgCBfW0wH_8nitrokit8commands13release_notes36generate_comprehensive_release_notes
FN:415,_RNvXs_NtNtCsktOgCBfW0wH_8nitrokit8commands13release_notesNtB4_14RepositoryInfoNtNtCsClSaUtMvjr_4core7default7Default7default
FN:300,_RNCNCNvNtNtCsktOgCBfW0wH_8nitrokit8commands13release_notes20compare_version_tags00B9_
FN:303,_RNCNCNvNtNtCsktOgCBfW0wH_8nitrokit8commands13release_notes20compare_version_tags0s_0B9_
FN:265,_RNCNvNtNtCsktOgCBfW0wH_8nitrokit8commands13release_notes12get_all_tags0B7_
FN:108,_RNCNvNtNtCsktOgCBfW0wH_8nitrokit8commands13release_notes13get_tag_range0B7_
FN:113,_RNCNvNtNtCsktOgCBfW0wH_8nitrokit8commands13release_notes13get_tag_ranges_0B7_
FN:75,_RNCNvNtNtCsktOgCBfW0wH_8nitrokit8commands13release_notes14clean_tag_name0B7_
FN:96,_RNCNvNtNtCsktOgCBfW0wH_8nitrokit8commands13release_notes14clean_tag_names_0B7_
FN:239,_RNCNvNtNtCsktOgCBfW0wH_8nitrokit8commands13release_notes14is_version_tag0B7_
FN:503,_RNCNvNtNtCsktOgCBfW0wH_8nitrokit8commands13release_notes17extract_repo_path0B7_
FN:506,_RNCNvNtNtCsktOgCBfW0wH_8nitrokit8commands13release_notes17extract_repo_paths_0B7_
FN:298,_RNCNvNtNtCsktOgCBfW0wH_8nitrokit8commands13release_notes20compare_version_tags0B7_
FN:149,_RNCNvNtNtCsktOgCBfW0wH_8nitrokit8commands13release_notes25get_current_commit_as_tag0B7_
FN:150,_RNCNvNtNtCsktOgCBfW0wH_8nitrokit8commands13release_notes25get_current_commit_as_tags_0B7_
FN:228,_RNCNvNtNtCsktOgCBfW0wH_8nitrokit8commands13release_notes27extract_version_from_string0B7_
FN:644,_RNCNvNtNtCsktOgCBfW0wH_8nitrokit8commands13release_notes27get_contributors_with_stats0B7_
FN:648,_RNCNvNtNtCsktOgCBfW0wH_8nitrokit8commands13release_notes27get_contributors_with_statss_0B7_
FN:959,_RNvNtNtCsktOgCBfW0wH_8nitrokit8commands13release_notes34generate_release_notes_for_version
FN:300,_RNCNCNvNtNtCsfbtyNxrRj5V_8nitrokit8commands13release_notes20compare_version_tags00B9_
FN:303,_RNCNCNvNtNtCsfbtyNxrRj5V_8nitrokit8commands13release_notes20compare_version_tags0s_0B9_
FN:265,_RNCNvNtNtCsfbtyNxrRj5V_8nitrokit8commands13release_notes12get_all_tags0B7_
FN:108,_RNCNvNtNtCsfbtyNxrRj5V_8nitrokit8commands13release_notes13get_tag_range0B7_
FN:113,_RNCNvNtNtCsfbtyNxrRj5V_8nitrokit8commands13release_notes13get_tag_ranges_0B7_
FN:75,_RNCNvNtNtCsfbtyNxrRj5V_8nitrokit8commands13release_notes14clean_tag_name0B7_
FN:96,_RNCNvNtNtCsfbtyNxrRj5V_8nitrokit8commands13release_notes14clean_tag_names_0B7_
FN:239,_RNCNvNtNtCsfbtyNxrRj5V_8nitrokit8commands13release_notes14is_version_tag0B7_
FN:503,_RNCNvNtNtCsfbtyNxrRj5V_8nitrokit8commands13release_notes17extract_repo_path0B7_
FN:506,_RNCNvNtNtCsfbtyNxrRj5V_8nitrokit8commands13release_notes17extract_repo_paths_0B7_
FN:298,_RNCNvNtNtCsfbtyNxrRj5V_8nitrokit8commands13release_notes20compare_version_tags0B7_
FN:149,_RNCNvNtNtCsfbtyNxrRj5V_8nitrokit8commands13release_notes25get_current_commit_as_tag0B7_
FN:150,_RNCNvNtNtCsfbtyNxrRj5V_8nitrokit8commands13release_notes25get_current_commit_as_tags_0B7_
FN:228,_RNCNvNtNtCsfbtyNxrRj5V_8nitrokit8commands13release_notes27extract_version_from_string0B7_
FN:644,_RNCNvNtNtCsfbtyNxrRj5V_8nitrokit8commands13release_notes27get_contributors_with_stats0B7_
FN:648,_RNCNvNtNtCsfbtyNxrRj5V_8nitrokit8commands13release_notes27get_contributors_with_statss_0B7_
FN:375,_RNvMNtNtCsfbtyNxrRj5V_8nitrokit8commands13release_notesNtB2_10CommitInfo10short_hash
FN:383,_RNvMNtNtCsfbtyNxrRj5V_8nitrokit8commands13release_notesNtB2_10CommitInfo11format_date
FN:393,_RNvMNtNtCsfbtyNxrRj5V_8nitrokit8commands13release_notesNtB2_10CommitInfo11format_time
FN:532,_RNvMs0_NtNtCsfbtyNxrRj5V_8nitrokit8commands13release_notesNtB5_18CategorizedCommits3new
FN:262,_RNvNtNtCsfbtyNxrRj5V_8nitrokit8commands13release_notes12get_all_tags
FN:102,_RNvNtNtCsfbtyNxrRj5V_8nitrokit8commands13release_notes13get_tag_range
FN:592,_RNvNtNtCsfbtyNxrRj5V_8nitrokit8commands13release_notes13is_prerelease
FN:448,_RNvNtNtCsfbtyNxrRj5V_8nitrokit8commands13release_notes13parse_git_url
FN:68,_RNvNtNtCsfbtyNxrRj5V_8nitrokit8commands13release_notes14clean_tag_name
FN:234,_RNvNtNtCsfbtyNxrRj5V_8nitrokit8commands13release_notes14is_version_tag
FN:497,_RNvNtNtCsfbtyNxrRj5V_8nitrokit8commands13release_notes17extract_repo_path
FN:553,_RNvNtNtCsfbtyNxrRj5V_8nitrokit8commands13release_notes18categorize_commits
FN:181,_RNvNtNtCsfbtyNxrRj5V_8nitrokit8commands13release_notes18generate_smart_tag
FN:172,_RNvNtNtCsfbtyNxrRj5V_8nitrokit8commands13release_notes18get_current_branch
FN:624,_RNvNtNtCsfbtyNxrRj5V_8nitrokit8commands13release_notes19generate_issues_url
FN:427,_RNvNtNtCsfbtyNxrRj5V_8nitrokit8commands13release_notes19get_repository_info
FN:294,_RNvNtNtCsfbtyNxrRj5V_8nitrokit8commands13release_notes20compare_version_tags
FN:620,_RNvNtNtCsfbtyNxrRj5V_8nitrokit8commands13release_notes20generate_commits_url
FN:603,_RNvNtNtCsfbtyNxrRj5V_8nitrokit8commands13release_notes20generate_compare_url
FN:628,_RNvNtNtCsfbtyNxrRj5V_8nitrokit8commands13release_notes22generate_new_issue_url
FN:9,_RNvNtNtCsfbtyNxrRj5V_8nitrokit8commands13release_notes22generate_release_notes
FN:322,_RNvNtNtCsfbtyNxrRj5V_8nitrokit8commands13release_notes24get_commits_between_tags
FN:135,_RNvNtNtCsfbtyNxrRj5V_8nitrokit8commands13release_notes25get_current_commit_as_tag
FN:223,_RNvNtNtCsfbtyNxrRj5V_8nitrokit8commands13release_notes27extract_version_from_string
FN:632,_RNvNtNtCsfbtyNxrRj5V_8nitrokit8commands13release_notes27get_contributors_with_stats
FN:653,_RNvNtNtCsfbtyNxrRj5V_8nitrokit8commands13release_notes33format_github_username_with_stats
FN:959,_RNvNtNtCsfbtyNxrRj5V_8nitrokit8commands13release_notes34generate_release_notes_for_version
FN:685,_RNvNtNtCsfbtyNxrRj5V_8nitrokit8commands13release_notes36generate_comprehensive_release_notes
FN:415,_RNvXs_NtNtCsfbtyNxrRj5V_8nitrokit8commands13release_notesNtB4_14RepositoryInfoNtNtCsClSaUtMvjr_4core7default7Default7default
FNDA:2,_RNvMNtNtCsktOgCBfW0wH_8nitrokit8commands13release_notesNtB2_10CommitInfo10short_hash
FNDA:6,_RNvMNtNtCsktOgCBfW0wH_8nitrokit8commands13release_notesNtB2_10CommitInfo11format_date
FNDA:2,_RNvMNtNtCsktOgCBfW0wH_8nitrokit8commands13release_notesNtB2_10CommitInfo11format_time
FNDA:4,_RNvMs0_NtNtCsktOgCBfW0wH_8nitrokit8commands13release_notesNtB5_18CategorizedCommits3new
FNDA:2,_RNvNtNtCsktOgCBfW0wH_8nitrokit8commands13release_notes12get_all_tags
FNDA:2,_RNvNtNtCsktOgCBfW0wH_8nitrokit8commands13release_notes13get_tag_range
FNDA:8,_RNvNtNtCsktOgCBfW0wH_8nitrokit8commands13release_notes13is_prerelease
FNDA:0,_RNvNtNtCsktOgCBfW0wH_8nitrokit8commands13release_notes13parse_git_url
FNDA:18,_RNvNtNtCsktOgCBfW0wH_8nitrokit8commands13release_notes14clean_tag_name
FNDA:6,_RNvNtNtCsktOgCBfW0wH_8nitrokit8commands13release_notes14is_version_tag
FNDA:0,_RNvNtNtCsktOgCBfW0wH_8nitrokit8commands13release_notes17extract_repo_path
FNDA:4,_RNvNtNtCsktOgCBfW0wH_8nitrokit8commands13release_notes18categorize_commits
FNDA:2,_RNvNtNtCsktOgCBfW0wH_8nitrokit8commands13release_notes18generate_smart_tag
FNDA:2,_RNvNtNtCsktOgCBfW0wH_8nitrokit8commands13release_notes18get_current_branch
FNDA:4,_RNvNtNtCsktOgCBfW0wH_8nitrokit8commands13release_notes19generate_issues_url
FNDA:2,_RNvNtNtCsktOgCBfW0wH_8nitrokit8commands13release_notes19get_repository_info
FNDA:0,_RNvNtNtCsktOgCBfW0wH_8nitrokit8commands13release_notes20compare_version_tags
FNDA:2,_RNvNtNtCsktOgCBfW0wH_8nitrokit8commands13release_notes20generate_commits_url
FNDA:0,_RNvNtNtCsktOgCBfW0wH_8nitrokit8commands13release_notes20generate_compare_url
FNDA:2,_RNvNtNtCsktOgCBfW0wH_8nitrokit8commands13release_notes22generate_new_issue_url
FNDA:2,_RNvNtNtCsktOgCBfW0wH_8nitrokit8commands13release_notes22generate_release_notes
FNDA:2,_RNvNtNtCsktOgCBfW0wH_8nitrokit8commands13release_notes24get_commits_between_tags
FNDA:2,_RNvNtNtCsktOgCBfW0wH_8nitrokit8commands13release_notes25get_current_commit_as_tag
FNDA:0,_RNvNtNtCsktOgCBfW0wH_8nitrokit8commands13release_notes27extract_version_from_string
FNDA:3,_RNvNtNtCsktOgCBfW0wH_8nitrokit8commands13release_notes27get_contributors_with_stats
FNDA:2,_RNvNtNtCsktOgCBfW0wH_8nitrokit8commands13release_notes33format_github_username_with_stats
FNDA:2,_RNvNtNtCsktOgCBfW0wH_8nitrokit8commands13release_notes36generate_comprehensive_release_notes
FNDA:2,_RNvXs_NtNtCsktOgCBfW0wH_8nitrokit8commands13release_notesNtB4_14RepositoryInfoNtNtCsClSaUtMvjr_4core7default7Default7default
FNDA:0,_RNCNCNvNtNtCsktOgCBfW0wH_8nitrokit8commands13release_notes20compare_version_tags00B9_
FNDA:0,_RNCNCNvNtNtCsktOgCBfW0wH_8nitrokit8commands13release_notes20compare_version_tags0s_0B9_
FNDA:0,_RNCNvNtNtCsktOgCBfW0wH_8nitrokit8commands13release_notes12get_all_tags0B7_
FNDA:0,_RNCNvNtNtCsktOgCBfW0wH_8nitrokit8commands13release_notes13get_tag_range0B7_
FNDA:0,_RNCNvNtNtCsktOgCBfW0wH_8nitrokit8commands13release_notes13get_tag_ranges_0B7_
FNDA:43,_RNCNvNtNtCsktOgCBfW0wH_8nitrokit8commands13release_notes14clean_tag_name0B7_
FNDA:21,_RNCNvNtNtCsktOgCBfW0wH_8nitrokit8commands13release_notes14clean_tag_names_0B7_
FNDA:26,_RNCNvNtNtCsktOgCBfW0wH_8nitrokit8commands13release_notes14is_version_tag0B7_
FNDA:0,_RNCNvNtNtCsktOgCBfW0wH_8nitrokit8commands13release_notes17extract_repo_path0B7_
FNDA:0,_RNCNvNtNtCsktOgCBfW0wH_8nitrokit8commands13release_notes17extract_repo_paths_0B7_
FNDA:0,_RNCNvNtNtCsktOgCBfW0wH_8nitrokit8commands13release_notes20compare_version_tags0B7_
FNDA:2,_RNCNvNtNtCsktOgCBfW0wH_8nitrokit8commands13release_notes25get_current_commit_as_tag0B7_
FNDA:0,_RNCNvNtNtCsktOgCBfW0wH_8nitrokit8commands13release_notes25get_current_commit_as_tags_0B7_
FNDA:0,_RNCNvNtNtCsktOgCBfW0wH_8nitrokit8commands13release_notes27extract_version_from_string0B7_
FNDA:4,_RNCNvNtNtCsktOgCBfW0wH_8nitrokit8commands13release_notes27get_contributors_with_stats0B7_
FNDA:1,_RNCNvNtNtCsktOgCBfW0wH_8nitrokit8commands13release_notes27get_contributors_with_statss_0B7_
FNDA:0,_RNvNtNtCsktOgCBfW0wH_8nitrokit8commands13release_notes34generate_release_notes_for_version
FNDA:0,_RNCNCNvNtNtCsfbtyNxrRj5V_8nitrokit8commands13release_notes20compare_version_tags00B9_
FNDA:0,_RNCNCNvNtNtCsfbtyNxrRj5V_8nitrokit8commands13release_notes20compare_version_tags0s_0B9_
FNDA:0,_RNCNvNtNtCsfbtyNxrRj5V_8nitrokit8commands13release_notes12get_all_tags0B7_
FNDA:0,_RNCNvNtNtCsfbtyNxrRj5V_8nitrokit8commands13release_notes13get_tag_range0B7_
FNDA:0,_RNCNvNtNtCsfbtyNxrRj5V_8nitrokit8commands13release_notes13get_tag_ranges_0B7_
FNDA:0,_RNCNvNtNtCsfbtyNxrRj5V_8nitrokit8commands13release_notes14clean_tag_name0B7_
FNDA:0,_RNCNvNtNtCsfbtyNxrRj5V_8nitrokit8commands13release_notes14clean_tag_names_0B7_
FNDA:0,_RNCNvNtNtCsfbtyNxrRj5V_8nitrokit8commands13release_notes14is_version_tag0B7_
FNDA:0,_RNCNvNtNtCsfbtyNxrRj5V_8nitrokit8commands13release_notes17extract_repo_path0B7_
FNDA:0,_RNCNvNtNtCsfbtyNxrRj5V_8nitrokit8commands13release_notes17extract_repo_paths_0B7_
FNDA:0,_RNCNvNtNtCsfbtyNxrRj5V_8nitrokit8commands13release_notes20compare_version_tags0B7_
FNDA:0,_RNCNvNtNtCsfbtyNxrRj5V_8nitrokit8commands13release_notes25get_current_commit_as_tag0B7_
FNDA:0,_RNCNvNtNtCsfbtyNxrRj5V_8nitrokit8commands13release_notes25get_current_commit_as_tags_0B7_
FNDA:0,_RNCNvNtNtCsfbtyNxrRj5V_8nitrokit8commands13release_notes27extract_version_from_string0B7_
FNDA:0,_RNCNvNtNtCsfbtyNxrRj5V_8nitrokit8commands13release_notes27get_contributors_with_stats0B7_
FNDA:0,_RNCNvNtNtCsfbtyNxrRj5V_8nitrokit8commands13release_notes27get_contributors_with_statss_0B7_
FNDA:0,_RNvMNtNtCsfbtyNxrRj5V_8nitrokit8commands13release_notesNtB2_10CommitInfo10short_hash
FNDA:0,_RNvMNtNtCsfbtyNxrRj5V_8nitrokit8commands13release_notesNtB2_10CommitInfo11format_date
FNDA:0,_RNvMNtNtCsfbtyNxrRj5V_8nitrokit8commands13release_notesNtB2_10CommitInfo11format_time
FNDA:0,_RNvMs0_NtNtCsfbtyNxrRj5V_8nitrokit8commands13release_notesNtB5_18CategorizedCommits3new
FNDA:0,_RNvNtNtCsfbtyNxrRj5V_8nitrokit8commands13release_notes12get_all_tags
FNDA:0,_RNvNtNtCsfbtyNxrRj5V_8nitrokit8commands13release_notes13get_tag_range
FNDA:0,_RNvNtNtCsfbtyNxrRj5V_8nitrokit8commands13release_notes13is_prerelease
FNDA:0,_RNvNtNtCsfbtyNxrRj5V_8nitrokit8commands13release_notes13parse_git_url
FNDA:0,_RNvNtNtCsfbtyNxrRj5V_8nitrokit8commands13release_notes14clean_tag_name
FNDA:0,_RNvNtNtCsfbtyNxrRj5V_8nitrokit8commands13release_notes14is_version_tag
FNDA:0,_RNvNtNtCsfbtyNxrRj5V_8nitrokit8commands13release_notes17extract_repo_path
FNDA:0,_RNvNtNtCsfbtyNxrRj5V_8nitrokit8commands13release_notes18categorize_commits
FNDA:0,_RNvNtNtCsfbtyNxrRj5V_8nitrokit8commands13release_notes18generate_smart_tag
FNDA:0,_RNvNtNtCsfbtyNxrRj5V_8nitrokit8commands13release_notes18get_current_branch
FNDA:0,_RNvNtNtCsfbtyNxrRj5V_8nitrokit8commands13release_notes19generate_issues_url
FNDA:0,_RNvNtNtCsfbtyNxrRj5V_8nitrokit8commands13release_notes19get_repository_info
FNDA:0,_RNvNtNtCsfbtyNxrRj5V_8nitrokit8commands13release_notes20compare_version_tags
FNDA:0,_RNvNtNtCsfbtyNxrRj5V_8nitrokit8commands13release_notes20generate_commits_url
FNDA:0,_RNvNtNtCsfbtyNxrRj5V_8nitrokit8commands13release_notes20generate_compare_url
FNDA:0,_RNvNtNtCsfbtyNxrRj5V_8nitrokit8commands13release_notes22generate_new_issue_url
FNDA:0,_RNvNtNtCsfbtyNxrRj5V_8nitrokit8commands13release_notes22generate_release_notes
FNDA:0,_RNvNtNtCsfbtyNxrRj5V_8nitrokit8commands13release_notes24get_commits_between_tags
FNDA:0,_RNvNtNtCsfbtyNxrRj5V_8nitrokit8commands13release_notes25get_current_commit_as_tag
FNDA:0,_RNvNtNtCsfbtyNxrRj5V_8nitrokit8commands13release_notes27extract_version_from_string
FNDA:0,_RNvNtNtCsfbtyNxrRj5V_8nitrokit8commands13release_notes27get_contributors_with_stats
FNDA:0,_RNvNtNtCsfbtyNxrRj5V_8nitrokit8commands13release_notes33format_github_username_with_stats
FNDA:0,_RNvNtNtCsfbtyNxrRj5V_8nitrokit8commands13release_notes34generate_release_notes_for_version
FNDA:0,_RNvNtNtCsfbtyNxrRj5V_8nitrokit8commands13release_notes36generate_comprehensive_release_notes
FNDA:0,_RNvXs_NtNtCsfbtyNxrRj5V_8nitrokit8commands13release_notesNtB4_14RepositoryInfoNtNtCsClSaUtMvjr_4core7default7Default7default
FNF:45
FNH:29
DA:9,2
DA:10,2
DA:11,2
DA:12,2
DA:13,2
DA:14,2
DA:15,2
DA:16,2
DA:17,2
DA:18,2
DA:19,2
DA:20,2
DA:21,2
DA:22,2
DA:23,2
DA:24,2
DA:25,2
DA:27,2
DA:28,0
DA:29,2
DA:30,2
DA:31,2
DA:33,2
DA:34,2
DA:35,2
DA:36,2
DA:37,2
DA:38,2
DA:39,2
DA:40,2
DA:41,2
DA:42,2
DA:43,2
DA:44,2
DA:45,2
DA:46,2
DA:47,2
DA:48,2
DA:49,2
DA:50,2
DA:51,2
DA:52,0
DA:53,0
DA:54,0
DA:57,0
DA:58,0
DA:59,0
DA:62,0
DA:63,0
DA:64,0
DA:66,2
DA:68,18
DA:69,18
DA:70,18
DA:72,18
DA:73,15
DA:75,43
DA:76,5
DA:77,10
DA:78,0
DA:79,3
DA:81,18
DA:82,2
DA:83,16
DA:85,18
DA:86,18
DA:87,18
DA:88,18
DA:89,18
DA:90,18
DA:91,18
DA:92,18
DA:93,18
DA:94,18
DA:95,18
DA:96,21
DA:97,3
DA:98,15
DA:99,18
DA:100,18
DA:102,2
DA:104,2
DA:105,2
DA:106,2
DA:107,2
DA:108,2
DA:109,2
DA:110,2
DA:111,2
DA:113,0
DA:114,0
DA:115,0
DA:116,0
DA:117,0
DA:118,0
DA:119,0
DA:120,0
DA:121,0
DA:122,0
DA:124,0
DA:127,2
DA:131,0
DA:133,2
DA:135,2
DA:136,2
DA:139,2
DA:140,2
DA:141,2
DA:142,2
DA:143,2
DA:144,2
DA:145,2
DA:146,2
DA:147,2
DA:148,2
DA:149,2
DA:150,2
DA:151,2
DA:152,2
DA:153,2
DA:154,2
DA:155,2
DA:156,2
DA:157,2
DA:158,2
DA:159,2
DA:160,2
DA:161,2
DA:162,2
DA:163,0
DA:164,0
DA:165,0
DA:168,0
DA:169,0
DA:170,2
DA:172,2
DA:173,2
DA:174,2
DA:175,2
DA:176,0
DA:177,0
DA:178,0
DA:179,2
DA:181,2
DA:182,2
DA:183,2
DA:184,2
DA:185,2
DA:186,2
DA:187,2
DA:188,0
DA:189,0
DA:190,0
DA:191,2
DA:194,2
DA:195,0
DA:196,2
DA:197,2
DA:198,2
DA:200,2
DA:201,0
DA:202,0
DA:203,0
DA:205,0
DA:206,0
DA:207,0
DA:208,0
DA:209,0
DA:210,0
DA:211,0
DA:212,0
DA:213,0
DA:214,0
DA:215,0
DA:216,0
DA:217,0
DA:218,0
DA:219,0
DA:221,2
DA:223,0
DA:225,0
DA:227,0
DA:228,0
DA:229,0
DA:230,0
DA:231,0
DA:232,0
DA:234,6
DA:235,6
DA:236,6
DA:237,6
DA:238,6
DA:239,26
DA:240,3
DA:241,3
DA:242,3
DA:243,3
DA:244,3
DA:245,3
DA:246,3
DA:247,3
DA:249,0
DA:250,3
DA:251,3
DA:252,3
DA:253,3
DA:254,1
DA:255,0
DA:256,0
DA:257,0
DA:259,0
DA:260,6
DA:262,2
DA:263,2
DA:264,2
DA:265,2
DA:266,0
DA:267,0
DA:268,0
DA:269,0
DA:270,0
DA:271,0
DA:272,0
DA:273,2
DA:276,2
DA:277,2
DA:278,2
DA:279,2
DA:280,2
DA:281,0
DA:282,0
DA:283,2
DA:284,0
DA:286,0
DA:287,0
DA:289,2
DA:290,2
DA:291,2
DA:292,2
DA:294,0
DA:298,0
DA:299,0
DA:300,0
DA:301,0
DA:302,0
DA:303,0
DA:304,0
DA:305,0
DA:307,0
DA:308,0
DA:311,0
DA:312,0
DA:313,0
DA:314,0
DA:319,0
DA:320,0
DA:322,2
DA:323,2
DA:324,2
DA:325,2
DA:326,2
DA:327,2
DA:328,2
DA:331,2
DA:332,0
DA:333,0
DA:334,0
DA:335,2
DA:338,2
DA:339,0
DA:341,2
DA:344,2
DA:346,2
DA:347,4
DA:348,2
DA:349,2
DA:351,2
DA:352,2
DA:353,2
DA:354,2
DA:355,2
DA:356,2
DA:357,2
DA:358,2
DA:359,2
DA:362,2
DA:363,2
DA:375,2
DA:376,2
DA:377,2
DA:379,0
DA:381,2
DA:383,6
DA:385,6
DA:386,6
DA:387,6
DA:389,0
DA:391,6
DA:393,2
DA:395,2
DA:396,2
DA:397,2
DA:399,0
DA:401,2
DA:415,2
DA:416,2
DA:417,2
DA:418,2
DA:419,2
DA:420,2
DA:421,2
DA:422,2
DA:423,2
DA:424,2
DA:427,2
DA:428,2
DA:431,2
DA:432,2
DA:433,0
DA:434,0
DA:435,0
DA:436,0
DA:437,0
DA:438,0
DA:439,0
DA:440,0
DA:441,0
DA:443,0
DA:445,2
DA:446,2
DA:448,0
DA:449,0
DA:450,0
DA:451,0
DA:452,0
DA:453,0
DA:454,0
DA:455,0
DA:456,0
DA:457,0
DA:458,0
DA:459,0
DA:460,0
DA:461,0
DA:464,0
DA:465,0
DA:466,0
DA:467,0
DA:468,0
DA:469,0
DA:470,0
DA:471,0
DA:472,0
DA:475,0
DA:476,0
DA:477,0
DA:478,0
DA:479,0
DA:480,0
DA:481,0
DA:482,0
DA:483,0
DA:488,0
DA:489,0
DA:490,0
DA:491,0
DA:492,0
DA:493,0
DA:495,0
DA:497,0
DA:498,0
DA:499,0
DA:501,0
DA:502,0
DA:503,0
DA:504,0
DA:506,0
DA:508,0
DA:510,0
DA:532,4
DA:533,4
DA:534,4
DA:535,4
DA:536,4
DA:537,4
DA:538,4
DA:539,4
DA:540,4
DA:541,4
DA:542,4
DA:543,4
DA:544,4
DA:545,4
DA:546,4
DA:547,4
DA:548,4
DA:549,4
DA:550,4
DA:553,4
DA:554,4
DA:556,11
DA:557,7
DA:558,7
DA:559,7
DA:560,7
DA:561,7
DA:562,1
DA:563,1
DA:565,6
DA:566,4
DA:567,4
DA:568,1
DA:569,1
DA:570,1
DA:571,1
DA:572,0
DA:573,0
DA:574,0
DA:575,0
DA:576,0
DA:577,0
DA:578,0
DA:579,0
DA:580,0
DA:581,0
DA:582,0
DA:583,0
DA:584,0
DA:585,0
DA:586,0
DA:589,4
DA:590,4
DA:592,8
DA:593,8
DA:594,8
DA:595,7
DA:596,6
DA:597,5
DA:598,5
DA:599,3
DA:600,2
DA:601,8
DA:603,0
DA:604,0
DA:605,0
DA:606,0
DA:607,0
DA:608,0
DA:609,0
DA:610,0
DA:612,0
DA:613,0
DA:614,0
DA:615,0
DA:616,0
DA:618,0
DA:620,2
DA:621,2
DA:622,2
DA:624,4
DA:625,4
DA:626,4
DA:628,2
DA:629,2
DA:630,2
DA:632,3
DA:633,3
DA:635,8
DA:636,5
DA:637,5
DA:638,5
DA:639,5
DA:640,5
DA:642,3
DA:643,3
DA:644,4
DA:645,3
DA:646,3
DA:647,3
DA:648,3
DA:649,3
DA:650,3
DA:651,3
DA:653,2
DA:654,2
DA:655,2
DA:656,2
DA:657,2
DA:658,2
DA:659,2
DA:660,2
DA:662,0
DA:665,2
DA:667,0
DA:668,0
DA:669,0
DA:670,0
DA:671,0
DA:672,0
DA:673,2
DA:675,0
DA:676,2
DA:678,0
DA:681,2
DA:683,2
DA:685,2
DA:686,2
DA:687,2
DA:688,2
DA:689,2
DA:690,2
DA:691,2
DA:693,2
DA:694,0
DA:696,2
DA:700,2
DA:701,2
DA:702,2
DA:703,2
DA:704,2
DA:705,2
DA:706,2
DA:707,2
DA:708,2
DA:709,2
DA:710,2
DA:711,2
DA:712,2
DA:713,2
DA:714,2
DA:715,2
DA:716,2
DA:717,2
DA:718,2
DA:719,2
DA:720,2
DA:721,2
DA:722,2
DA:723,2
DA:724,2
DA:725,2
DA:726,2
DA:729,2
DA:730,2
DA:731,2
DA:732,2
DA:733,0
DA:734,0
DA:735,0
DA:736,0
DA:737,0
DA:738,0
DA:739,2
DA:742,2
DA:743,0
DA:744,0
DA:745,0
DA:746,0
DA:747,0
DA:748,0
DA:749,2
DA:752,2
DA:753,2
DA:754,4
DA:755,2
DA:756,2
DA:757,2
DA:758,0
DA:761,2
DA:762,0
DA:763,0
DA:764,0
DA:765,0
DA:766,0
DA:767,2
DA:770,2
DA:771,0
DA:772,0
DA:773,0
DA:774,0
DA:775,0
DA:776,2
DA:779,2
DA:780,0
DA:781,0
DA:782,0
DA:783,0
DA:784,0
DA:785,2
DA:788,2
DA:789,0
DA:790,0
DA:791,0
DA:792,0
DA:793,0
DA:794,2
DA:797,2
DA:798,0
DA:799,0
DA:800,0
DA:801,0
DA:802,0
DA:803,2
DA:806,2
DA:807,0
DA:808,0
DA:809,0
DA:810,0
DA:811,0
DA:812,2
DA:815,2
DA:816,2
DA:817,2
DA:818,2
DA:819,4
DA:820,2
DA:821,2
DA:822,2
DA:823,2
DA:824,2
DA:825,0
DA:828,2
DA:829,2
DA:830,2
DA:831,2
DA:832,2
DA:833,2
DA:834,2
DA:835,2
DA:836,2
DA:837,0
DA:838,2
DA:839,2
DA:840,2
DA:841,0
DA:842,0
DA:843,0
DA:844,2
DA:845,0
DA:846,2
DA:847,2
DA:848,2
DA:849,2
DA:850,2
DA:851,2
DA:852,2
DA:853,2
DA:854,2
DA:855,2
DA:856,2
DA:857,0
DA:858,0
DA:859,2
DA:860,2
DA:861,2
DA:862,0
DA:863,0
DA:864,0
DA:865,2
DA:866,0
DA:867,2
DA:868,2
DA:869,2
DA:870,2
DA:871,2
DA:872,2
DA:873,2
DA:874,2
DA:875,2
DA:876,2
DA:877,2
DA:878,2
DA:879,2
DA:880,2
DA:881,2
DA:882,2
DA:883,2
DA:884,2
DA:885,2
DA:886,2
DA:887,0
DA:889,2
DA:892,2
DA:893,2
DA:894,2
DA:895,2
DA:896,2
DA:897,2
DA:898,2
DA:899,2
DA:901,2
DA:902,0
DA:905,2
DA:906,2
DA:907,0
DA:908,0
DA:909,0
DA:910,0
DA:911,2
DA:912,2
DA:913,2
DA:914,2
DA:915,2
DA:916,2
DA:917,2
DA:918,2
DA:919,2
DA:920,2
DA:921,2
DA:922,2
DA:923,2
DA:924,2
DA:925,2
DA:926,2
DA:927,2
DA:928,0
DA:929,0
DA:930,0
DA:931,0
DA:932,2
DA:934,2
DA:935,2
DA:936,2
DA:937,2
DA:938,2
DA:939,2
DA:940,2
DA:941,2
DA:942,2
DA:943,2
DA:944,2
DA:945,2
DA:946,2
DA:947,2
DA:948,2
DA:949,2
DA:950,2
DA:951,2
DA:952,2
DA:953,2
DA:954,2
DA:955,2
DA:956,2
DA:957,2
DA:959,0
DA:960,0
DA:961,0
DA:962,0
DA:963,0
DA:964,0
DA:965,0
DA:966,0
DA:967,0
DA:970,0
DA:971,0
DA:972,0
DA:974,0
DA:975,0
DA:976,0
DA:977,0
DA:978,0
DA:979,0
BRF:0
BRH:0
LF:779
LH:485
end_of_record
SF:/Users/mustafagenc/Repositories/Kisisel/nitroterm/src/commands/translation_sync.rs
FN:188,_RNCNCNvNtNtCsktOgCBfW0wH_8nitrokit8commands16translation_sync20get_target_languages00B9_
FN:192,_RNCNCNvNtNtCsktOgCBfW0wH_8nitrokit8commands16translation_sync20get_target_languages0s_0B9_
FN:441,_RNCNvMs0_NtNtCsktOgCBfW0wH_8nitrokit8commands16translation_syncNtB7_15TranslationSync15call_gemini_api0Bb_
FN:414,_RNCNvMs0_NtNtCsktOgCBfW0wH_8nitrokit8commands16translation_syncNtB7_15TranslationSync15translate_batch0Bb_
FN:361,_RNCNvMs0_NtNtCsktOgCBfW0wH_8nitrokit8commands16translation_syncNtB7_15TranslationSync16process_language0Bb_
FN:265,_RNCNvMs0_NtNtCsktOgCBfW0wH_8nitrokit8commands16translation_syncNtB7_15TranslationSync17sync_translations0Bb_
FN:619,_RNCNvNtNtCsktOgCBfW0wH_8nitrokit8commands16translation_sync11show_config0B7_
FN:630,_RNCNvNtNtCsktOgCBfW0wH_8nitrokit8commands16translation_sync12reset_config0B7_
FN:624,_RNCNvNtNtCsktOgCBfW0wH_8nitrokit8commands16translation_sync12setup_config0B7_
FN:151,_RNCNvNtNtCsktOgCBfW0wH_8nitrokit8commands16translation_sync20get_target_languages0B7_
FN:140,_RNCNvNtNtCsktOgCBfW0wH_8nitrokit8commands16translation_sync23discover_language_files0B7_
FN:580,_RNCNvNtNtCsktOgCBfW0wH_8nitrokit8commands16translation_sync29sync_translations_interactive0B7_
FN:613,_RNCNvNtNtCsktOgCBfW0wH_8nitrokit8commands16translation_sync29sync_translations_with_config0B7_
FN:441,_RNvMs0_NtNtCsktOgCBfW0wH_8nitrokit8commands16translation_syncNtB5_15TranslationSync15call_gemini_api
FN:409,_RNvMs0_NtNtCsktOgCBfW0wH_8nitrokit8commands16translation_syncNtB5_15TranslationSync15translate_batch
FN:512,_RNvMs0_NtNtCsktOgCBfW0wH_8nitrokit8commands16translation_syncNtB5_15TranslationSync16get_nested_value
FN:356,_RNvMs0_NtNtCsktOgCBfW0wH_8nitrokit8commands16translation_syncNtB5_15TranslationSync16process_language
FN:528,_RNvMs0_NtNtCsktOgCBfW0wH_8nitrokit8commands16translation_syncNtB5_15TranslationSync16set_nested_value
FN:265,_RNvMs0_NtNtCsktOgCBfW0wH_8nitrokit8commands16translation_syncNtB5_15TranslationSync17sync_translations
FN:500,_RNvMs0_NtNtCsktOgCBfW0wH_8nitrokit8commands16translation_syncNtB5_15TranslationSync18find_missing_paths
FN:479,_RNvMs0_NtNtCsktOgCBfW0wH_8nitrokit8commands16translation_syncNtB5_15TranslationSync26parse_translation_response
FN:256,_RNvMs0_NtNtCsktOgCBfW0wH_8nitrokit8commands16translation_syncNtB5_15TranslationSync3new
FN:39,_RNvMs_NtNtCsktOgCBfW0wH_8nitrokit8commands16translation_syncNtB4_8Language3new
FN:47,_RNvMs_NtNtCsktOgCBfW0wH_8nitrokit8commands16translation_syncNtB4_8Language9from_code
FN:619,_RNvNtNtCsktOgCBfW0wH_8nitrokit8commands16translation_sync11show_config
FN:630,_RNvNtNtCsktOgCBfW0wH_8nitrokit8commands16translation_sync12reset_config
FN:624,_RNvNtNtCsktOgCBfW0wH_8nitrokit8commands16translation_sync12setup_config
FN:558,_RNvNtNtCsktOgCBfW0wH_8nitrokit8commands16translation_sync17extract_all_paths
FN:151,_RNvNtNtCsktOgCBfW0wH_8nitrokit8commands16translation_sync20get_target_languages
FN:97,_RNvNtNtCsktOgCBfW0wH_8nitrokit8commands16translation_sync23discover_language_files
FN:580,_RNvNtNtCsktOgCBfW0wH_8nitrokit8commands16translation_sync29sync_translations_interactive
FN:613,_RNvNtNtCsktOgCBfW0wH_8nitrokit8commands16translation_sync29sync_translations_with_config
FN:20,_RNvXNtNtCsktOgCBfW0wH_8nitrokit8commands16translation_syncNtB2_17TranslationConfigINtNtCsClSaUtMvjr_4core7convert4FromNtNtB4_6config9AppConfigE4from
FN:188,_RNCNCNvNtNtCsfbtyNxrRj5V_8nitrokit8commands16translation_sync20get_target_languages00B9_
FN:192,_RNCNCNvNtNtCsfbtyNxrRj5V_8nitrokit8commands16translation_sync20get_target_languages0s_0B9_
FN:441,_RNCNvMs0_NtNtCsfbtyNxrRj5V_8nitrokit8commands16translation_syncNtB7_15TranslationSync15call_gemini_api0Bb_
FN:414,_RNCNvMs0_NtNtCsfbtyNxrRj5V_8nitrokit8commands16translation_syncNtB7_15TranslationSync15translate_batch0Bb_
FN:361,_RNCNvMs0_NtNtCsfbtyNxrRj5V_8nitrokit8commands16translation_syncNtB7_15TranslationSync16process_language0Bb_
FN:265,_RNCNvMs0_NtNtCsfbtyNxrRj5V_8nitrokit8commands16translation_syncNtB7_15TranslationSync17sync_translations0Bb_
FN:619,_RNCNvNtNtCsfbtyNxrRj5V_8nitrokit8commands16translation_sync11show_config0B7_
FN:630,_RNCNvNtNtCsfbtyNxrRj5V_8nitrokit8commands16translation_sync12reset_config0B7_
FN:624,_RNCNvNtNtCsfbtyNxrRj5V_8nitrokit8commands16translation_sync12setup_config0B7_
FN:151,_RNCNvNtNtCsfbtyNxrRj5V_8nitrokit8commands16translation_sync20get_target_languages0B7_
FN:140,_RNCNvNtNtCsfbtyNxrRj5V_8nitrokit8commands16translation_sync23discover_language_files0B7_
FN:580,_RNCNvNtNtCsfbtyNxrRj5V_8nitrokit8commands16translation_sync29sync_translations_interactive0B7_
FN:613,_RNCNvNtNtCsfbtyNxrRj5V_8nitrokit8commands16translation_sync29sync_translations_with_config0B7_
FN:441,_RNvMs0_NtNtCsfbtyNxrRj5V_8nitrokit8commands16translation_syncNtB5_15TranslationSync15call_gemini_api
FN:409,_RNvMs0_NtNtCsfbtyNxrRj5V_8nitrokit8commands16translation_syncNtB5_15TranslationSync15translate_batch
FN:512,_RNvMs0_NtNtCsfbtyNxrRj5V_8nitrokit8commands16translation_syncNtB5_15TranslationSync16get_nested_value
FN:356,_RNvMs0_NtNtCsfbtyNxrRj5V_8nitrokit8commands16translation_syncNtB5_15TranslationSync16process_language
FN:528,_RNvMs0_NtNtCsfbtyNxrRj5V_8nitrokit8commands16translation_syncNtB5_15TranslationSync16set_nested_value
FN:265,_RNvMs0_NtNtCsfbtyNxrRj5V_8nitrokit8commands16translation_syncNtB5_15TranslationSync17sync_translations
FN:500,_RNvMs0_NtNtCsfbtyNxrRj5V_8nitrokit8commands16translation_syncNtB5_15TranslationSync18find_missing_paths
FN:479,_RNvMs0_NtNtCsfbtyNxrRj5V_8nitrokit8commands16translation_syncNtB5_15TranslationSync26parse_translation_response
FN:256,_RNvMs0_NtNtCsfbtyNxrRj5V_8nitrokit8commands16translation_syncNtB5_15TranslationSync3new
FN:39,_RNvMs_NtNtCsfbtyNxrRj5V_8nitrokit8commands16translation_syncNtB4_8Language3new
FN:47,_RNvMs_NtNtCsfbtyNxrRj5V_8nitrokit8commands16translation_syncNtB4_8Language9from_code
FN:619,_RNvNtNtCsfbtyNxrRj5V_8nitrokit8commands16translation_sync11show_config
FN:630,_RNvNtNtCsfbtyNxrRj5V_8nitrokit8commands16translation_sync12reset_config
FN:624,_RNvNtNtCsfbtyNxrRj5V_8nitrokit8commands16translation_sync12setup_config
FN:558,_RNvNtNtCsfbtyNxrRj5V_8nitrokit8commands16translation_sync17extract_all_paths
FN:151,_RNvNtNtCsfbtyNxrRj5V_8nitrokit8commands16translation_sync20get_target_languages
FN:97,_RNvNtNtCsfbtyNxrRj5V_8nitrokit8commands16translation_sync23discover_language_files
FN:580,_RNvNtNtCsfbtyNxrRj5V_8nitrokit8commands16translation_sync29sync_translations_interactive
FN:613,_RNvNtNtCsfbtyNxrRj5V_8nitrokit8commands16translation_sync29sync_translations_with_config
FN:20,_RNvXNtNtCsfbtyNxrRj5V_8nitrokit8commands16translation_syncNtB2_17TranslationConfigINtNtCsClSaUtMvjr_4core7convert4FromNtNtB4_6config9AppConfigE4from
FNDA:0,_RNCNCNvNtNtCsktOgCBfW0wH_8nitrokit8commands16translation_sync20get_target_languages00B9_
FNDA:0,_RNCNCNvNtNtCsktOgCBfW0wH_8nitrokit8commands16translation_sync20get_target_languages0s_0B9_
FNDA:0,_RNCNvMs0_NtNtCsktOgCBfW0wH_8nitrokit8commands16translation_syncNtB7_15TranslationSync15call_gemini_api0Bb_
FNDA:0,_RNCNvMs0_NtNtCsktOgCBfW0wH_8nitrokit8commands16translation_syncNtB7_15TranslationSync15translate_batch0Bb_
FNDA:0,_RNCNvMs0_NtNtCsktOgCBfW0wH_8nitrokit8commands16translation_syncNtB7_15TranslationSync16process_language0Bb_
FNDA:0,_RNCNvMs0_NtNtCsktOgCBfW0wH_8nitrokit8commands16translation_syncNtB7_15TranslationSync17sync_translations0Bb_
FNDA:0,_RNCNvNtNtCsktOgCBfW0wH_8nitrokit8commands16translation_sync11show_config0B7_
FNDA:0,_RNCNvNtNtCsktOgCBfW0wH_8nitrokit8commands16translation_sync12reset_config0B7_
FNDA:0,_RNCNvNtNtCsktOgCBfW0wH_8nitrokit8commands16translation_sync12setup_config0B7_
FNDA:0,_RNCNvNtNtCsktOgCBfW0wH_8nitrokit8commands16translation_sync20get_target_languages0B7_
FNDA:0,_RNCNvNtNtCsktOgCBfW0wH_8nitrokit8commands16translation_sync23discover_language_files0B7_
FNDA:0,_RNCNvNtNtCsktOgCBfW0wH_8nitrokit8commands16translation_sync29sync_translations_interactive0B7_
FNDA:0,_RNCNvNtNtCsktOgCBfW0wH_8nitrokit8commands16translation_sync29sync_translations_with_config0B7_
FNDA:0,_RNvMs0_NtNtCsktOgCBfW0wH_8nitrokit8commands16translation_syncNtB5_15TranslationSync15call_gemini_api
FNDA:0,_RNvMs0_NtNtCsktOgCBfW0wH_8nitrokit8commands16translation_syncNtB5_15TranslationSync15translate_batch
FNDA:0,_RNvMs0_NtNtCsktOgCBfW0wH_8nitrokit8commands16translation_syncNtB5_15TranslationSync16get_nested_value
FNDA:0,_RNvMs0_NtNtCsktOgCBfW0wH_8nitrokit8commands16translation_syncNtB5_15TranslationSync16process_language
FNDA:0,_RNvMs0_NtNtCsktOgCBfW0wH_8nitrokit8commands16translation_syncNtB5_15TranslationSync16set_nested_value
FNDA:0,_RNvMs0_NtNtCsktOgCBfW0wH_8nitrokit8commands16translation_syncNtB5_15TranslationSync17sync_translations
FNDA:0,_RNvMs0_NtNtCsktOgCBfW0wH_8nitrokit8commands16translation_syncNtB5_15TranslationSync18find_missing_paths
FNDA:0,_RNvMs0_NtNtCsktOgCBfW0wH_8nitrokit8commands16translation_syncNtB5_15TranslationSync26parse_translation_response
FNDA:0,_RNvMs0_NtNtCsktOgCBfW0wH_8nitrokit8commands16translation_syncNtB5_15TranslationSync3new
FNDA:0,_RNvMs_NtNtCsktOgCBfW0wH_8nitrokit8commands16translation_syncNtB4_8Language3new
FNDA:0,_RNvMs_NtNtCsktOgCBfW0wH_8nitrokit8commands16translation_syncNtB4_8Language9from_code
FNDA:0,_RNvNtNtCsktOgCBfW0wH_8nitrokit8commands16translation_sync11show_config
FNDA:0,_RNvNtNtCsktOgCBfW0wH_8nitrokit8commands16translation_sync12reset_config
FNDA:0,_RNvNtNtCsktOgCBfW0wH_8nitrokit8commands16translation_sync12setup_config
FNDA:0,_RNvNtNtCsktOgCBfW0wH_8nitrokit8commands16translation_sync17extract_all_paths
FNDA:0,_RNvNtNtCsktOgCBfW0wH_8nitrokit8commands16translation_sync20get_target_languages
FNDA:0,_RNvNtNtCsktOgCBfW0wH_8nitrokit8commands16translation_sync23discover_language_files
FNDA:0,_RNvNtNtCsktOgCBfW0wH_8nitrokit8commands16translation_sync29sync_translations_interactive
FNDA:0,_RNvNtNtCsktOgCBfW0wH_8nitrokit8commands16translation_sync29sync_translations_with_config
FNDA:0,_RNvXNtNtCsktOgCBfW0wH_8nitrokit8commands16translation_syncNtB2_17TranslationConfigINtNtCsClSaUtMvjr_4core7convert4FromNtNtB4_6config9AppConfigE4from
FNDA:0,_RNCNCNvNtNtCsfbtyNxrRj5V_8nitrokit8commands16translation_sync20get_target_languages00B9_
FNDA:0,_RNCNCNvNtNtCsfbtyNxrRj5V_8nitrokit8commands16translation_sync20get_target_languages0s_0B9_
FNDA:0,_RNCNvMs0_NtNtCsfbtyNxrRj5V_8nitrokit8commands16translation_syncNtB7_15TranslationSync15call_gemini_api0Bb_
FNDA:0,_RNCNvMs0_NtNtCsfbtyNxrRj5V_8nitrokit8commands16translation_syncNtB7_15TranslationSync15translate_batch0Bb_
FNDA:0,_RNCNvMs0_NtNtCsfbtyNxrRj5V_8nitrokit8commands16translation_syncNtB7_15TranslationSync16process_language0Bb_
FNDA:0,_RNCNvMs0_NtNtCsfbtyNxrRj5V_8nitrokit8commands16translation_syncNtB7_15TranslationSync17sync_translations0Bb_
FNDA:0,_RNCNvNtNtCsfbtyNxrRj5V_8nitrokit8commands16translation_sync11show_config0B7_
FNDA:0,_RNCNvNtNtCsfbtyNxrRj5V_8nitrokit8commands16translation_sync12reset_config0B7_
FNDA:0,_RNCNvNtNtCsfbtyNxrRj5V_8nitrokit8commands16translation_sync12setup_config0B7_
FNDA:0,_RNCNvNtNtCsfbtyNxrRj5V_8nitrokit8commands16translation_sync20get_target_languages0B7_
FNDA:0,_RNCNvNtNtCsfbtyNxrRj5V_8nitrokit8commands16translation_sync23discover_language_files0B7_
FNDA:0,_RNCNvNtNtCsfbtyNxrRj5V_8nitrokit8commands16translation_sync29sync_translations_interactive0B7_
FNDA:0,_RNCNvNtNtCsfbtyNxrRj5V_8nitrokit8commands16translation_sync29sync_translations_with_config0B7_
FNDA:0,_RNvMs0_NtNtCsfbtyNxrRj5V_8nitrokit8commands16translation_syncNtB5_15TranslationSync15call_gemini_api
FNDA:0,_RNvMs0_NtNtCsfbtyNxrRj5V_8nitrokit8commands16translation_syncNtB5_15TranslationSync15translate_batch
FNDA:0,_RNvMs0_NtNtCsfbtyNxrRj5V_8nitrokit8commands16translation_syncNtB5_15TranslationSync16get_nested_value
FNDA:0,_RNvMs0_NtNtCsfbtyNxrRj5V_8nitrokit8commands16translation_syncNtB5_15TranslationSync16process_language
FNDA:0,_RNvMs0_NtNtCsfbtyNxrRj5V_8nitrokit8commands16translation_syncNtB5_15TranslationSync16set_nested_value
FNDA:0,_RNvMs0_NtNtCsfbtyNxrRj5V_8nitrokit8commands16translation_syncNtB5_15TranslationSync17sync_translations
FNDA:0,_RNvMs0_NtNtCsfbtyNxrRj5V_8nitrokit8commands16translation_syncNtB5_15TranslationSync18find_missing_paths
FNDA:0,_RNvMs0_NtNtCsfbtyNxrRj5V_8nitrokit8commands16translation_syncNtB5_15TranslationSync26parse_translation_response
FNDA:0,_RNvMs0_NtNtCsfbtyNxrRj5V_8nitrokit8commands16translation_syncNtB5_15TranslationSync3new
FNDA:0,_RNvMs_NtNtCsfbtyNxrRj5V_8nitrokit8commands16translation_syncNtB4_8Language3new
FNDA:0,_RNvMs_NtNtCsfbtyNxrRj5V_8nitrokit8commands16translation_syncNtB4_8Language9from_code
FNDA:0,_RNvNtNtCsfbtyNxrRj5V_8nitrokit8commands16translation_sync11show_config
FNDA:0,_RNvNtNtCsfbtyNxrRj5V_8nitrokit8commands16translation_sync12reset_config
FNDA:0,_RNvNtNtCsfbtyNxrRj5V_8nitrokit8commands16translation_sync12setup_config
FNDA:0,_RNvNtNtCsfbtyNxrRj5V_8nitrokit8commands16translation_sync17extract_all_paths
FNDA:0,_RNvNtNtCsfbtyNxrRj5V_8nitrokit8commands16translation_sync20get_target_languages
FNDA:0,_RNvNtNtCsfbtyNxrRj5V_8nitrokit8commands16translation_sync23discover_language_files
FNDA:0,_RNvNtNtCsfbtyNxrRj5V_8nitrokit8commands16translation_sync29sync_translations_interactive
FNDA:0,_RNvNtNtCsfbtyNxrRj5V_8nitrokit8commands16translation_sync29sync_translations_with_config
FNDA:0,_RNvXNtNtCsfbtyNxrRj5V_8nitrokit8commands16translation_syncNtB2_17TranslationConfigINtNtCsClSaUtMvjr_4core7convert4FromNtNtB4_6config9AppConfigE4from
FNF:33
FNH:0
DA:20,0
DA:21,0
DA:22,0
DA:23,0
DA:24,0
DA:25,0
DA:26,0
DA:27,0
DA:28,0
DA:39,0
DA:40,0
DA:41,0
DA:42,0
DA:43,0
DA:44,0
DA:45,0
DA:47,0
DA:49,0
DA:50,0
DA:51,0
DA:52,0
DA:53,0
DA:54,0
DA:55,0
DA:56,0
DA:57,0
DA:58,0
DA:59,0
DA:60,0
DA:61,0
DA:62,0
DA:63,0
DA:64,0
DA:65,0
DA:66,0
DA:67,0
DA:68,0
DA:69,0
DA:70,0
DA:71,0
DA:72,0
DA:73,0
DA:74,0
DA:75,0
DA:76,0
DA:77,0
DA:78,0
DA:79,0
DA:80,0
DA:81,0
DA:82,0
DA:83,0
DA:84,0
DA:85,0
DA:86,0
DA:87,0
DA:88,0
DA:89,0
DA:92,0
DA:93,0
DA:97,0
DA:98,0
DA:99,0
DA:100,0
DA:101,0
DA:102,0
DA:103,0
DA:104,0
DA:105,0
DA:108,0
DA:109,0
DA:110,0
DA:113,0
DA:114,0
DA:115,0
DA:116,0
DA:118,0
DA:120,0
DA:121,0
DA:122,0
DA:123,0
DA:124,0
DA:125,0
DA:126,0
DA:127,0
DA:128,0
DA:129,0
DA:130,0
DA:131,0
DA:132,0
DA:133,0
DA:134,0
DA:135,0
DA:136,0
DA:140,0
DA:141,0
DA:142,0
DA:143,0
DA:144,0
DA:145,0
DA:146,0
DA:147,0
DA:148,0
DA:151,0
DA:153,0
DA:155,0
DA:156,0
DA:157,0
DA:158,0
DA:159,0
DA:160,0
DA:161,0
DA:162,0
DA:163,0
DA:164,0
DA:165,0
DA:166,0
DA:167,0
DA:168,0
DA:169,0
DA:170,0
DA:171,0
DA:172,0
DA:173,0
DA:174,0
DA:175,0
DA:176,0
DA:178,0
DA:179,0
DA:180,0
DA:181,0
DA:182,0
DA:183,0
DA:184,0
DA:185,0
DA:186,0
DA:188,0
DA:189,0
DA:191,0
DA:192,0
DA:193,0
DA:194,0
DA:195,0
DA:196,0
DA:197,0
DA:198,0
DA:199,0
DA:200,0
DA:201,0
DA:202,0
DA:203,0
DA:206,0
DA:207,0
DA:208,0
DA:209,0
DA:210,0
DA:256,0
DA:257,0
DA:258,0
DA:259,0
DA:260,0
DA:261,0
DA:262,0
DA:263,0
DA:265,0
DA:266,0
DA:267,0
DA:268,0
DA:269,0
DA:270,0
DA:271,0
DA:272,0
DA:273,0
DA:274,0
DA:275,0
DA:276,0
DA:277,0
DA:278,0
DA:279,0
DA:282,0
DA:283,0
DA:284,0
DA:285,0
DA:287,0
DA:288,0
DA:290,0
DA:291,0
DA:292,0
DA:293,0
DA:294,0
DA:295,0
DA:296,0
DA:297,0
DA:298,0
DA:299,0
DA:300,0
DA:303,0
DA:304,0
DA:306,0
DA:307,0
DA:308,0
DA:309,0
DA:312,0
DA:313,0
DA:314,0
DA:315,0
DA:316,0
DA:317,0
DA:318,0
DA:319,0
DA:320,0
DA:321,0
DA:322,0
DA:323,0
DA:324,0
DA:325,0
DA:327,0
DA:328,0
DA:329,0
DA:330,0
DA:331,0
DA:332,0
DA:333,0
DA:334,0
DA:335,0
DA:337,0
DA:338,0
DA:339,0
DA:340,0
DA:341,0
DA:342,0
DA:346,0
DA:347,0
DA:348,0
DA:351,0
DA:352,0
DA:353,0
DA:356,0
DA:357,0
DA:358,0
DA:359,0
DA:360,0
DA:361,0
DA:362,0
DA:363,0
DA:364,0
DA:365,0
DA:368,0
DA:369,0
DA:370,0
DA:372,0
DA:376,0
DA:377,0
DA:378,0
DA:379,0
DA:380,0
DA:381,0
DA:382,0
DA:383,0
DA:384,0
DA:385,0
DA:386,0
DA:387,0
DA:388,0
DA:389,0
DA:391,0
DA:392,0
DA:394,0
DA:395,0
DA:396,0
DA:401,0
DA:402,0
DA:403,0
DA:404,0
DA:406,0
DA:407,0
DA:409,0
DA:410,0
DA:411,0
DA:412,0
DA:413,0
DA:414,0
DA:415,0
DA:416,0
DA:418,0
DA:419,0
DA:420,0
DA:421,0
DA:422,0
DA:423,0
DA:424,0
DA:427,0
DA:428,0
DA:429,0
DA:430,0
DA:431,0
DA:432,0
DA:433,0
DA:434,0
DA:435,0
DA:437,0
DA:438,0
DA:439,0
DA:441,0
DA:442,0
DA:443,0
DA:444,0
DA:445,0
DA:446,0
DA:447,0
DA:448,0
DA:449,0
DA:450,0
DA:451,0
DA:452,0
DA:453,0
DA:454,0
DA:455,0
DA:456,0
DA:457,0
DA:458,0
DA:459,0
DA:461,0
DA:463,0
DA:464,0
DA:465,0
DA:466,0
DA:468,0
DA:470,0
DA:471,0
DA:472,0
DA:473,0
DA:474,0
DA:476,0
DA:477,0
DA:479,0
DA:480,0
DA:481,0
DA:482,0
DA:483,0
DA:484,0
DA:486,0
DA:487,0
DA:488,0
DA:489,0
DA:490,0
DA:491,0
DA:492,0
DA:493,0
DA:494,0
DA:497,0
DA:498,0
DA:500,0
DA:501,0
DA:503,0
DA:504,0
DA:505,0
DA:506,0
DA:509,0
DA:510,0
DA:512,0
DA:513,0
DA:514,0
DA:516,0
DA:517,0
DA:518,0
DA:519,0
DA:521,0
DA:525,0
DA:526,0
DA:528,0
DA:529,0
DA:530,0
DA:532,0
DA:533,0
DA:535,0
DA:536,0
DA:537,0
DA:538,0
DA:541,0
DA:542,0
DA:543,0
DA:545,0
DA:546,0
DA:547,0
DA:548,0
DA:549,0
DA:550,0
DA:554,0
DA:555,0
DA:558,0
DA:559,0
DA:561,0
DA:562,0
DA:563,0
DA:564,0
DA:566,0
DA:569,0
DA:570,0
DA:571,0
DA:572,0
DA:573,0
DA:575,0
DA:577,0
DA:578,0
DA:580,0
DA:581,0
DA:583,0
DA:584,0
DA:585,0
DA:586,0
DA:587,0
DA:588,0
DA:589,0
DA:590,0
DA:591,0
DA:592,0
DA:593,0
DA:594,0
DA:595,0
DA:596,0
DA:597,0
DA:598,0
DA:599,0
DA:600,0
DA:602,0
DA:603,0
DA:604,0
DA:605,0
DA:606,0
DA:607,0
DA:608,0
DA:609,0
DA:611,0
DA:613,0
DA:614,0
DA:615,0
DA:616,0
DA:619,0
DA:620,0
DA:621,0
DA:622,0
DA:624,0
DA:625,0
DA:626,0
DA:627,0
DA:628,0
DA:630,0
DA:631,0
DA:632,0
DA:633,0
BRF:0
BRH:0
LF:464
LH:0
end_of_record
SF:/Users/mustafagenc/Repositories/Kisisel/nitroterm/src/commands/version_management.rs
FN:78,_RNCNvNtNtCsktOgCBfW0wH_8nitrokit8commands18version_management14create_git_tag0B7_
FN:6,_RNCNvNtNtCsktOgCBfW0wH_8nitrokit8commands18version_management16bump_and_release0B7_
FN:109,_RNCNvNtNtCsktOgCBfW0wH_8nitrokit8commands18version_management20show_version_history0B7_
FN:33,_RNvNtNtCsktOgCBfW0wH_8nitrokit8commands18version_management12bump_version
FN:78,_RNvNtNtCsktOgCBfW0wH_8nitrokit8commands18version_management14create_git_tag
FN:65,_RNvNtNtCsktOgCBfW0wH_8nitrokit8commands18version_management14get_latest_tag
FN:6,_RNvNtNtCsktOgCBfW0wH_8nitrokit8commands18version_management16bump_and_release
FN:53,_RNvNtNtCsktOgCBfW0wH_8nitrokit8commands18version_management17update_cargo_toml
FN:109,_RNvNtNtCsktOgCBfW0wH_8nitrokit8commands18version_management20show_version_history
FN:78,_RNCNvNtNtCsfbtyNxrRj5V_8nitrokit8commands18version_management14create_git_tag0B7_
FN:6,_RNCNvNtNtCsfbtyNxrRj5V_8nitrokit8commands18version_management16bump_and_release0B7_
FN:109,_RNCNvNtNtCsfbtyNxrRj5V_8nitrokit8commands18version_management20show_version_history0B7_
FN:33,_RNvNtNtCsfbtyNxrRj5V_8nitrokit8commands18version_management12bump_version
FN:78,_RNvNtNtCsfbtyNxrRj5V_8nitrokit8commands18version_management14create_git_tag
FN:65,_RNvNtNtCsfbtyNxrRj5V_8nitrokit8commands18version_management14get_latest_tag
FN:6,_RNvNtNtCsfbtyNxrRj5V_8nitrokit8commands18version_management16bump_and_release
FN:53,_RNvNtNtCsfbtyNxrRj5V_8nitrokit8commands18version_management17update_cargo_toml
FN:109,_RNvNtNtCsfbtyNxrRj5V_8nitrokit8commands18version_management20show_version_history
FNDA:0,_RNCNvNtNtCsktOgCBfW0wH_8nitrokit8commands18version_management14create_git_tag0B7_
FNDA:0,_RNCNvNtNtCsktOgCBfW0wH_8nitrokit8commands18version_management16bump_and_release0B7_
FNDA:0,_RNCNvNtNtCsktOgCBfW0wH_8nitrokit8commands18version_management20show_version_history0B7_
FNDA:0,_RNvNtNtCsktOgCBfW0wH_8nitrokit8commands18version_management12bump_version
FNDA:0,_RNvNtNtCsktOgCBfW0wH_8nitrokit8commands18version_management14create_git_tag
FNDA:0,_RNvNtNtCsktOgCBfW0wH_8nitrokit8commands18version_management14get_latest_tag
FNDA:0,_RNvNtNtCsktOgCBfW0wH_8nitrokit8commands18version_management16bump_and_release
FNDA:0,_RNvNtNtCsktOgCBfW0wH_8nitrokit8commands18version_management17update_cargo_toml
FNDA:0,_RNvNtNtCsktOgCBfW0wH_8nitrokit8commands18version_management20show_version_history
FNDA:0,_RNCNvNtNtCsfbtyNxrRj5V_8nitrokit8commands18version_management14create_git_tag0B7_
FNDA:0,_RNCNvNtNtCsfbtyNxrRj5V_8nitrokit8commands18version_management16bump_and_release0B7_
FNDA:0,_RNCNvNtNtCsfbtyNxrRj5V_8nitrokit8commands18version_management20show_version_history0B7_
FNDA:0,_RNvNtNtCsfbtyNxrRj5V_8nitrokit8commands18version_management12bump_version
FNDA:0,_RNvNtNtCsfbtyNxrRj5V_8nitrokit8commands18version_management14create_git_tag
FNDA:0,_RNvNtNtCsfbtyNxrRj5V_8nitrokit8commands18version_management14get_latest_tag
FNDA:0,_RNvNtNtCsfbtyNxrRj5V_8nitrokit8commands18version_management16bump_and_release
FNDA:0,_RNvNtNtCsfbtyNxrRj5V_8nitrokit8commands18version_management17update_cargo_toml
FNDA:0,_RNvNtNtCsfbtyNxrRj5V_8nitrokit8commands18version_management20show_version_history
FNF:9
FNH:0
DA:6,0
DA:7,0
DA:8,0
DA:9,0
DA:11,0
DA:12,0
DA:13,0
DA:14,0
DA:15,0
DA:16,0
DA:17,0
DA:20,0
DA:21,0
DA:22,0
DA:23,0
DA:24,0
DA:27,0
DA:29,0
DA:30,0
DA:31,0
DA:33,0
DA:34,0
DA:35,0
DA:36,0
DA:37,0
DA:39,0
DA:40,0
DA:41,0
DA:43,0
DA:44,0
DA:45,0
DA:46,0
DA:47,0
DA:50,0
DA:51,0
DA:53,0
DA:54,0
DA:55,0
DA:56,0
DA:57,0
DA:58,0
DA:59,0
DA:60,0
DA:61,0
DA:62,0
DA:63,0
DA:65,0
DA:66,0
DA:67,0
DA:68,0
DA:70,0
DA:71,0
DA:72,0
DA:74,0
DA:76,0
DA:78,0
DA:79,0
DA:80,0
DA:81,0
DA:82,0
DA:84,0
DA:85,0
DA:86,0
DA:89,0
DA:90,0
DA:91,0
DA:92,0
DA:93,0
DA:94,0
DA:97,0
DA:98,0
DA:99,0
DA:101,0
DA:102,0
DA:103,0
DA:105,0
DA:106,0
DA:107,0
DA:109,0
DA:110,0
DA:111,0
DA:113,0
DA:114,0
DA:115,0
DA:117,0
DA:118,0
DA:119,0
DA:120,0
DA:121,0
DA:122,0
DA:123,0
DA:124,0
DA:126,0
DA:127,0
DA:128,0
DA:130,0
DA:131,0
BRF:0
BRH:0
LF:100
LH:0
end_of_record
SF:/Users/mustafagenc/Repositories/Kisisel/nitroterm/src/config/mod.rs
FN:11,_RNvMNtCsfbtyNxrRj5V_8nitrokit6configNtB2_6Config11load_config
FN:17,_RNvXs_NtCsfbtyNxrRj5V_8nitrokit6configNtB4_6ConfigNtNtCsClSaUtMvjr_4core7default7Default7default
FNDA:0,_RNvMNtCsfbtyNxrRj5V_8nitrokit6configNtB2_6Config11load_config
FNDA:0,_RNvXs_NtCsfbtyNxrRj5V_8nitrokit6configNtB4_6ConfigNtNtCsClSaUtMvjr_4core7default7Default7default
FNF:2
FNH:0
DA:11,0
DA:12,0
DA:13,0
DA:17,0
DA:18,0
DA:19,0
DA:20,0
DA:21,0
DA:22,0
DA:23,0
BRF:0
BRH:0
LF:10
LH:0
end_of_record
SF:/Users/mustafagenc/Repositories/Kisisel/nitroterm/src/i18n.rs
FN:32,_RNvMNtCsfbtyNxrRj5V_8nitrokit4i18nNtB2_4I18n10set_locale
FN:20,_RNvMNtCsfbtyNxrRj5V_8nitrokit4i18nNtB2_4I18n17load_translations
FN:38,_RNvMNtCsfbtyNxrRj5V_8nitrokit4i18nNtB2_4I18n1t
FN:10,_RNvMNtCsfbtyNxrRj5V_8nitrokit4i18nNtB2_4I18n3new
FN:49,_RNvXs_NtCsfbtyNxrRj5V_8nitrokit4i18nNtB4_4I18nNtNtCsClSaUtMvjr_4core7default7Default7default
FNDA:0,_RNvMNtCsfbtyNxrRj5V_8nitrokit4i18nNtB2_4I18n10set_locale
FNDA:0,_RNvMNtCsfbtyNxrRj5V_8nitrokit4i18nNtB2_4I18n17load_translations
FNDA:0,_RNvMNtCsfbtyNxrRj5V_8nitrokit4i18nNtB2_4I18n1t
FNDA:0,_RNvMNtCsfbtyNxrRj5V_8nitrokit4i18nNtB2_4I18n3new
FNDA:0,_RNvXs_NtCsfbtyNxrRj5V_8nitrokit4i18nNtB4_4I18nNtNtCsClSaUtMvjr_4core7default7Default7default
FNF:5
FNH:0
DA:10,0
DA:11,0
DA:12,0
DA:13,0
DA:14,0
DA:15,0
DA:16,0
DA:17,0
DA:18,0
DA:20,0
DA:21,0
DA:22,0
DA:23,0
DA:24,0
DA:25,0
DA:26,0
DA:27,0
DA:28,0
DA:29,0
DA:30,0
DA:32,0
DA:33,0
DA:34,0
DA:35,0
DA:36,0
DA:38,0
DA:39,0
DA:40,0
DA:41,0
DA:42,0
DA:43,0
DA:44,0
DA:45,0
DA:49,0
DA:50,0
DA:51,0
BRF:0
BRH:0
LF:36
LH:0
end_of_record
SF:/Users/mustafagenc/Repositories/Kisisel/nitroterm/src/main.rs
FN:162,_RNCNCNvCsktOgCBfW0wH_8nitrokit4main00B5_
FN:279,_RNCNvCsktOgCBfW0wH_8nitrokit20run_interactive_mode0B3_
FN:111,_RNCNvCsktOgCBfW0wH_8nitrokit4main0B3_
FN:13,_RNvCsktOgCBfW0wH_8nitrokit12print_banner
FN:101,_RNvCsktOgCBfW0wH_8nitrokit14get_user_input
FN:279,_RNvCsktOgCBfW0wH_8nitrokit20run_interactive_mode
FN:111,_RNvCsktOgCBfW0wH_8nitrokit4main
FN:76,_RNvCsktOgCBfW0wH_8nitrokit9show_menu
FNDA:0,_RNCNCNvCsktOgCBfW0wH_8nitrokit4main00B5_
FNDA:0,_RNCNvCsktOgCBfW0wH_8nitrokit20run_interactive_mode0B3_
FNDA:0,_RNCNvCsktOgCBfW0wH_8nitrokit4main0B3_
FNDA:0,_RNvCsktOgCBfW0wH_8nitrokit12print_banner
FNDA:0,_RNvCsktOgCBfW0wH_8nitrokit14get_user_input
FNDA:0,_RNvCsktOgCBfW0wH_8nitrokit20run_interactive_mode
FNDA:0,_RNvCsktOgCBfW0wH_8nitrokit4main
FNDA:0,_RNvCsktOgCBfW0wH_8nitrokit9show_menu
FNF:8
FNH:0
DA:13,0
DA:14,0
DA:15,0
DA:16,0
DA:17,0
DA:18,0
DA:19,0
DA:20,0
DA:21,0
DA:22,0
DA:23,0
DA:24,0
DA:25,0
DA:26,0
DA:27,0
DA:28,0
DA:29,0
DA:30,0
DA:31,0
DA:32,0
DA:33,0
DA:34,0
DA:35,0
DA:36,0
DA:37,0
DA:38,0
DA:39,0
DA:40,0
DA:41,0
DA:42,0
DA:43,0
DA:44,0
DA:45,0
DA:46,0
DA:47,0
DA:48,0
DA:49,0
DA:50,0
DA:51,0
DA:52,0
DA:53,0
DA:54,0
DA:55,0
DA:56,0
DA:57,0
DA:58,0
DA:59,0
DA:60,0
DA:61,0
DA:62,0
DA:63,0
DA:64,0
DA:65,0
DA:66,0
DA:67,0
DA:68,0
DA:69,0
DA:70,0
DA:71,0
DA:72,0
DA:73,0
DA:74,0
DA:76,0
DA:77,0
DA:78,0
DA:79,0
DA:80,0
DA:81,0
DA:82,0
DA:83,0
DA:84,0
DA:85,0
DA:86,0
DA:87,0
DA:88,0
DA:89,0
DA:90,0
DA:91,0
DA:92,0
DA:93,0
DA:94,0
DA:95,0
DA:96,0
DA:97,0
DA:98,0
DA:99,0
DA:101,0
DA:102,0
DA:103,0
DA:104,0
DA:105,0
DA:106,0
DA:107,0
DA:108,0
DA:111,0
DA:112,0
DA:113,0
DA:114,0
DA:115,0
DA:116,0
DA:117,0
DA:118,0
DA:119,0
DA:120,0
DA:121,0
DA:122,0
DA:123,0
DA:124,0
DA:125,0
DA:126,0
DA:127,0
DA:128,0
DA:129,0
DA:130,0
DA:131,0
DA:132,0
DA:133,0
DA:134,0
DA:135,0
DA:136,0
DA:137,0
DA:138,0
DA:139,0
DA:140,0
DA:141,0
DA:142,0
DA:143,0
DA:144,0
DA:145,0
DA:146,0
DA:147,0
DA:148,0
DA:149,0
DA:150,0
DA:151,0
DA:152,0
DA:153,0
DA:154,0
DA:155,0
DA:156,0
DA:157,0
DA:158,0
DA:159,0
DA:160,0
DA:161,0
DA:162,0
DA:163,0
DA:164,0
DA:165,0
DA:166,0
DA:167,0
DA:168,0
DA:169,0
DA:170,0
DA:171,0
DA:172,0
DA:173,0
DA:174,0
DA:175,0
DA:176,0
DA:177,0
DA:178,0
DA:179,0
DA:180,0
DA:181,0
DA:182,0
DA:183,0
DA:184,0
DA:185,0
DA:186,0
DA:187,0
DA:188,0
DA:189,0
DA:190,0
DA:191,0
DA:192,0
DA:193,0
DA:194,0
DA:195,0
DA:196,0
DA:197,0
DA:198,0
DA:199,0
DA:200,0
DA:201,0
DA:202,0
DA:203,0
DA:204,0
DA:205,0
DA:206,0
DA:207,0
DA:208,0
DA:209,0
DA:210,0
DA:211,0
DA:212,0
DA:213,0
DA:214,0
DA:215,0
DA:216,0
DA:217,0
DA:218,0
DA:219,0
DA:220,0
DA:221,0
DA:222,0
DA:223,0
DA:224,0
DA:225,0
DA:226,0
DA:227,0
DA:228,0
DA:229,0
DA:230,0
DA:231,0
DA:232,0
DA:233,0
DA:234,0
DA:235,0
DA:236,0
DA:237,0
DA:238,0
DA:239,0
DA:240,0
DA:241,0
DA:242,0
DA:243,0
DA:244,0
DA:245,0
DA:246,0
DA:247,0
DA:248,0
DA:249,0
DA:250,0
DA:251,0
DA:252,0
DA:253,0
DA:254,0
DA:255,0
DA:256,0
DA:257,0
DA:258,0
DA:259,0
DA:260,0
DA:261,0
DA:262,0
DA:263,0
DA:264,0
DA:265,0
DA:266,0
DA:267,0
DA:268,0
DA:269,0
DA:270,0
DA:271,0
DA:272,0
DA:273,0
DA:274,0
DA:275,0
DA:276,0
DA:277,0
DA:279,0
DA:280,0
DA:281,0
DA:283,0
DA:284,0
DA:285,0
DA:286,0
DA:287,0
DA:288,0
DA:289,0
DA:290,0
DA:291,0
DA:292,0
DA:294,0
DA:295,0
DA:296,0
DA:297,0
DA:298,0
DA:299,0
DA:300,0
DA:301,0
DA:302,0
DA:303,0
DA:304,0
DA:305,0
DA:306,0
DA:307,0
DA:308,0
DA:309,0
DA:310,0
DA:311,0
DA:312,0
DA:314,0
DA:315,0
DA:316,0
DA:317,0
DA:318,0
DA:319,0
DA:320,0
DA:321,0
DA:322,0
DA:323,0
DA:324,0
DA:325,0
DA:326,0
DA:328,0
DA:329,0
DA:330,0
DA:331,0
DA:333,0
DA:334,0
DA:335,0
DA:336,0
DA:339,0
DA:340,0
DA:341,0
DA:344,0
DA:345,0
DA:347,0
DA:348,0
DA:349,0
DA:350,0
DA:351,0
DA:352,0
DA:353,0
DA:354,0
DA:355,0
DA:356,0
DA:357,0
DA:358,0
DA:359,0
DA:360,0
DA:361,0
DA:362,0
DA:363,0
DA:364,0
DA:365,0
DA:366,0
DA:368,0
DA:369,0
DA:370,0
DA:371,0
DA:372,0
DA:373,0
DA:374,0
DA:375,0
DA:376,0
DA:378,0
DA:379,0
DA:380,0
DA:381,0
DA:382,0
DA:383,0
DA:384,0
DA:385,0
DA:386,0
DA:388,0
DA:389,0
DA:390,0
DA:391,0
DA:392,0
DA:393,0
DA:394,0
DA:395,0
DA:396,0
DA:397,0
DA:398,0
DA:399,0
DA:400,0
DA:402,0
DA:403,0
DA:404,0
DA:405,0
DA:406,0
DA:407,0
DA:409,0
DA:410,0
DA:412,0
DA:413,0
DA:414,0
DA:415,0
DA:416,0
DA:417,0
DA:418,0
DA:419,0
DA:420,0
DA:421,0
DA:422,0
DA:423,0
DA:424,0
DA:425,0
DA:426,0
DA:427,0
DA:428,0
DA:429,0
DA:430,0
DA:431,0
DA:432,0
DA:433,0
DA:434,0
DA:435,0
DA:436,0
DA:437,0
DA:438,0
DA:439,0
DA:440,0
DA:441,0
DA:442,0
DA:443,0
DA:444,0
DA:445,0
DA:446,0
DA:447,0
DA:448,0
DA:449,0
DA:450,0
DA:451,0
DA:452,0
DA:453,0
DA:454,0
DA:455,0
DA:456,0
DA:457,0
DA:458,0
DA:459,0
DA:460,0
DA:461,0
DA:462,0
DA:463,0
DA:464,0
DA:465,0
DA:466,0
DA:467,0
DA:468,0
DA:469,0
DA:470,0
DA:471,0
DA:472,0
DA:473,0
DA:474,0
DA:475,0
DA:476,0
DA:477,0
DA:480,0
DA:481,0
DA:482,0
DA:483,0
DA:484,0
DA:485,0
DA:486,0
DA:487,0
DA:488,0
DA:491,0
BRF:0
BRH:0
LF:598
LH:0
end_of_record
SF:/Users/mustafagenc/Repositories/Kisisel/nitroterm/src/utils/file_system.rs
FN:5,_RNvNtNtCsktOgCBfW0wH_8nitrokit5utils11file_system11file_exists
FN:9,_RNvNtNtCsktOgCBfW0wH_8nitrokit5utils11file_system19read_file_to_string
FN:13,_RNvNtNtCsktOgCBfW0wH_8nitrokit5utils11file_system20write_string_to_file
FN:5,_RNvNtNtCsfbtyNxrRj5V_8nitrokit5utils11file_system11file_exists
FN:9,_RNvNtNtCsfbtyNxrRj5V_8nitrokit5utils11file_system19read_file_to_string
FN:13,_RNvNtNtCsfbtyNxrRj5V_8nitrokit5utils11file_system20write_string_to_file
FNDA:38,_RNvNtNtCsktOgCBfW0wH_8nitrokit5utils11file_system11file_exists
FNDA:6,_RNvNtNtCsktOgCBfW0wH_8nitrokit5utils11file_system19read_file_to_string
FNDA:2,_RNvNtNtCsktOgCBfW0wH_8nitrokit5utils11file_system20write_string_to_file
FNDA:0,_RNvNtNtCsfbtyNxrRj5V_8nitrokit5utils11file_system11file_exists
FNDA:0,_RNvNtNtCsfbtyNxrRj5V_8nitrokit5utils11file_system19read_file_to_string
FNDA:0,_RNvNtNtCsfbtyNxrRj5V_8nitrokit5utils11file_system20write_string_to_file
FNF:3
FNH:3
DA:5,38
DA:6,38
DA:7,38
DA:9,6
DA:10,6
DA:11,6
DA:13,2
DA:14,2
DA:15,2
BRF:0
BRH:0
LF:9
LH:9
end_of_record
SF:/Users/mustafagenc/Repositories/Kisisel/nitroterm/src/utils/git.rs
FN:3,_RNvNtNtCsktOgCBfW0wH_8nitrokit5utils3git14get_repository
FN:3,_RNvNtNtCsfbtyNxrRj5V_8nitrokit5utils3git14get_repository
FNDA:2,_RNvNtNtCsktOgCBfW0wH_8nitrokit5utils3git14get_repository
FNDA:0,_RNvNtNtCsfbtyNxrRj5V_8nitrokit5utils3git14get_repository
FNF:1
FNH:1
DA:3,2
DA:4,2
DA:5,2
BRF:0
BRH:0
LF:3
LH:3
end_of_record
SF:/Users/mustafagenc/Repositories/Kisisel/nitroterm/src/utils/logging.rs
FN:62,_RNvNtNtCsktOgCBfW0wH_8nitrokit5utils7logging11log_success
FN:54,_RNvNtNtCsktOgCBfW0wH_8nitrokit5utils7logging11log_warning
FN:11,_RNvNtNtCsktOgCBfW0wH_8nitrokit5utils7logging3log
FN:50,_RNvNtNtCsktOgCBfW0wH_8nitrokit5utils7logging8log_info
FN:58,_RNvNtNtCsktOgCBfW0wH_8nitrokit5utils7logging9log_error
FN:62,_RNvNtNtCsfbtyNxrRj5V_8nitrokit5utils7logging11log_success
FN:54,_RNvNtNtCsfbtyNxrRj5V_8nitrokit5utils7logging11log_warning
FN:11,_RNvNtNtCsfbtyNxrRj5V_8nitrokit5utils7logging3log
FN:50,_RNvNtNtCsfbtyNxrRj5V_8nitrokit5utils7logging8log_info
FN:58,_RNvNtNtCsfbtyNxrRj5V_8nitrokit5utils7logging9log_error
FNDA:18,_RNvNtNtCsktOgCBfW0wH_8nitrokit5utils7logging11log_success
FNDA:2,_RNvNtNtCsktOgCBfW0wH_8nitrokit5utils7logging11log_warning
FNDA:89,_RNvNtNtCsktOgCBfW0wH_8nitrokit5utils7logging3log
FNDA:66,_RNvNtNtCsktOgCBfW0wH_8nitrokit5utils7logging8log_info
FNDA:3,_RNvNtNtCsktOgCBfW0wH_8nitrokit5utils7logging9log_error
FNDA:0,_RNvNtNtCsfbtyNxrRj5V_8nitrokit5utils7logging11log_success
FNDA:0,_RNvNtNtCsfbtyNxrRj5V_8nitrokit5utils7logging11log_warning
FNDA:0,_RNvNtNtCsfbtyNxrRj5V_8nitrokit5utils7logging3log
FNDA:0,_RNvNtNtCsfbtyNxrRj5V_8nitrokit5utils7logging8log_info
FNDA:0,_RNvNtNtCsfbtyNxrRj5V_8nitrokit5utils7logging9log_error
FNF:5
FNH:5
DA:11,89
DA:12,89
DA:13,89
DA:14,89
DA:15,66
DA:16,66
DA:17,66
DA:18,66
DA:19,66
DA:20,66
DA:21,66
DA:22,66
DA:23,2
DA:24,2
DA:25,2
DA:26,2
DA:27,2
DA:28,2
DA:29,2
DA:30,2
DA:31,3
DA:32,3
DA:33,3
DA:34,3
DA:35,3
DA:36,3
DA:37,3
DA:38,3
DA:39,18
DA:40,18
DA:41,18
DA:42,18
DA:43,18
DA:44,18
DA:45,18
DA:46,18
DA:48,89
DA:50,66
DA:51,66
DA:52,66
DA:54,2
DA:55,2
DA:56,2
DA:58,3
DA:59,3
DA:60,3
DA:62,18
DA:63,18
DA:64,18
BRF:0
BRH:0
LF:49
LH:49
end_of_record
SF:/Users/mustafagenc/Repositories/Kisisel/nitroterm/src/utils/version_check.rs
FN:29,_RNCNvNtNtCsktOgCBfW0wH_8nitrokit5utils13version_check17check_for_updates0B7_
FN:73,_RNCNvNtNtCsktOgCBfW0wH_8nitrokit5utils13version_check20fetch_latest_version0B7_
FN:127,_RNvNtNtCsktOgCBfW0wH_8nitrokit5utils13version_check16compare_versions
FN:26,_RNvNtNtCsktOgCBfW0wH_8nitrokit5utils13version_check17check_for_updates
FN:104,_RNvNtNtCsktOgCBfW0wH_8nitrokit5utils13version_check18load_version_cache
FN:112,_RNvNtNtCsktOgCBfW0wH_8nitrokit5utils13version_check18save_version_cache
FN:140,_RNvNtNtCsktOgCBfW0wH_8nitrokit5utils13version_check20clean_version_string
FN:73,_RNvNtNtCsktOgCBfW0wH_8nitrokit5utils13version_check20fetch_latest_version
FN:144,_RNvNtNtCsktOgCBfW0wH_8nitrokit5utils13version_check21show_update_available
FN:89,_RNvNtNtCsktOgCBfW0wH_8nitrokit5utils13version_check24should_check_for_updates
FN:29,_RNCNvNtNtCsfbtyNxrRj5V_8nitrokit5utils13version_check17check_for_updates0B7_
FN:73,_RNCNvNtNtCsfbtyNxrRj5V_8nitrokit5utils13version_check20fetch_latest_version0B7_
FN:127,_RNvNtNtCsfbtyNxrRj5V_8nitrokit5utils13version_check16compare_versions
FN:26,_RNvNtNtCsfbtyNxrRj5V_8nitrokit5utils13version_check17check_for_updates
FN:104,_RNvNtNtCsfbtyNxrRj5V_8nitrokit5utils13version_check18load_version_cache
FN:112,_RNvNtNtCsfbtyNxrRj5V_8nitrokit5utils13version_check18save_version_cache
FN:140,_RNvNtNtCsfbtyNxrRj5V_8nitrokit5utils13version_check20clean_version_string
FN:73,_RNvNtNtCsfbtyNxrRj5V_8nitrokit5utils13version_check20fetch_latest_version
FN:144,_RNvNtNtCsfbtyNxrRj5V_8nitrokit5utils13version_check21show_update_available
FN:89,_RNvNtNtCsfbtyNxrRj5V_8nitrokit5utils13version_check24should_check_for_updates
FNDA:0,_RNCNvNtNtCsktOgCBfW0wH_8nitrokit5utils13version_check17check_for_updates0B7_
FNDA:0,_RNCNvNtNtCsktOgCBfW0wH_8nitrokit5utils13version_check20fetch_latest_version0B7_
FNDA:0,_RNvNtNtCsktOgCBfW0wH_8nitrokit5utils13version_check16compare_versions
FNDA:0,_RNvNtNtCsktOgCBfW0wH_8nitrokit5utils13version_check17check_for_updates
FNDA:0,_RNvNtNtCsktOgCBfW0wH_8nitrokit5utils13version_check18load_version_cache
FNDA:0,_RNvNtNtCsktOgCBfW0wH_8nitrokit5utils13version_check18save_version_cache
FNDA:0,_RNvNtNtCsktOgCBfW0wH_8nitrokit5utils13version_check20clean_version_string
FNDA:0,_RNvNtNtCsktOgCBfW0wH_8nitrokit5utils13version_check20fetch_latest_version
FNDA:0,_RNvNtNtCsktOgCBfW0wH_8nitrokit5utils13version_check21show_update_available
FNDA:0,_RNvNtNtCsktOgCBfW0wH_8nitrokit5utils13version_check24should_check_for_updates
FNDA:0,_RNCNvNtNtCsfbtyNxrRj5V_8nitrokit5utils13version_check17check_for_updates0B7_
FNDA:0,_RNCNvNtNtCsfbtyNxrRj5V_8nitrokit5utils13version_check20fetch_latest_version0B7_
FNDA:0,_RNvNtNtCsfbtyNxrRj5V_8nitrokit5utils13version_check16compare_versions
FNDA:0,_RNvNtNtCsfbtyNxrRj5V_8nitrokit5utils13version_check17check_for_updates
FNDA:0,_RNvNtNtCsfbtyNxrRj5V_8nitrokit5utils13version_check18load_version_cache
FNDA:0,_RNvNtNtCsfbtyNxrRj5V_8nitrokit5utils13version_check18save_version_cache
FNDA:0,_RNvNtNtCsfbtyNxrRj5V_8nitrokit5utils13version_check20clean_version_string
FNDA:0,_RNvNtNtCsfbtyNxrRj5V_8nitrokit5utils13version_check20fetch_latest_version
FNDA:0,_RNvNtNtCsfbtyNxrRj5V_8nitrokit5utils13version_check21show_update_available
FNDA:0,_RNvNtNtCsfbtyNxrRj5V_8nitrokit5utils13version_check24should_check_for_updates
FNF:10
FNH:0
DA:26,0
DA:27,0
DA:28,0
DA:29,0
DA:30,0
DA:31,0
DA:32,0
DA:33,0
DA:34,0
DA:35,0
DA:36,0
DA:37,0
DA:38,0
DA:41,0
DA:42,0
DA:43,0
DA:44,0
DA:45,0
DA:47,0
DA:48,0
DA:49,0
DA:52,0
DA:53,0
DA:54,0
DA:57,0
DA:59,0
DA:60,0
DA:61,0
DA:62,0
DA:63,0
DA:64,0
DA:65,0
DA:70,0
DA:71,0
DA:73,0
DA:74,0
DA:75,0
DA:76,0
DA:77,0
DA:79,0
DA:81,0
DA:82,0
DA:83,0
DA:85,0
DA:86,0
DA:87,0
DA:89,0
DA:90,0
DA:91,0
DA:92,0
DA:93,0
DA:94,0
DA:95,0
DA:96,0
DA:97,0
DA:98,0
DA:100,0
DA:102,0
DA:104,0
DA:105,0
DA:106,0
DA:108,0
DA:110,0
DA:112,0
DA:113,0
DA:114,0
DA:115,0
DA:116,0
DA:117,0
DA:118,0
DA:119,0
DA:120,0
DA:122,0
DA:123,0
DA:124,0
DA:125,0
DA:127,0
DA:128,0
DA:129,0
DA:130,0
DA:131,0
DA:132,0
DA:134,0
DA:135,0
DA:137,0
DA:138,0
DA:140,0
DA:141,0
DA:142,0
DA:144,0
DA:145,0
DA:146,0
DA:147,0
DA:148,0
DA:149,0
DA:150,0
DA:151,0
DA:152,0
DA:153,0
DA:154,0
DA:155,0
DA:156,0
DA:157,0
DA:158,0
DA:159,0
DA:160,0
DA:161,0
DA:162,0
DA:163,0
DA:164,0
DA:165,0
DA:166,0
DA:167,0
DA:168,0
DA:169,0
DA:170,0
DA:171,0
DA:172,0
DA:173,0
DA:174,0
DA:175,0
BRF:0
BRH:0
LF:123
LH:0
end_of_record